Archive member included because of file (symbol)

/OPT/altera/12.1/nios2eds/bin/gnu/H-i686-pc-linux-gnu/bin/../lib/gcc/nios2-elf/4.1.2/../../../../nios2-elf/lib/libc.a(lib_a-ctime.o)
                              obj/default/hello_ucosii.o (ctime)
/OPT/altera/12.1/nios2eds/bin/gnu/H-i686-pc-linux-gnu/bin/../lib/gcc/nios2-elf/4.1.2/../../../../nios2-elf/lib/libc.a(lib_a-lcltime.o)
                              /OPT/altera/12.1/nios2eds/bin/gnu/H-i686-pc-linux-gnu/bin/../lib/gcc/nios2-elf/4.1.2/../../../../nios2-elf/lib/libc.a(lib_a-ctime.o) (localtime)
/OPT/altera/12.1/nios2eds/bin/gnu/H-i686-pc-linux-gnu/bin/../lib/gcc/nios2-elf/4.1.2/../../../../nios2-elf/lib/libc.a(lib_a-lcltime_r.o)
                              /OPT/altera/12.1/nios2eds/bin/gnu/H-i686-pc-linux-gnu/bin/../lib/gcc/nios2-elf/4.1.2/../../../../nios2-elf/lib/libc.a(lib_a-lcltime.o) (localtime_r)
/OPT/altera/12.1/nios2eds/bin/gnu/H-i686-pc-linux-gnu/bin/../lib/gcc/nios2-elf/4.1.2/../../../../nios2-elf/lib/libc.a(lib_a-malloc.o)
                              obj/default/hello_ucosii.o (free)
/OPT/altera/12.1/nios2eds/bin/gnu/H-i686-pc-linux-gnu/bin/../lib/gcc/nios2-elf/4.1.2/../../../../nios2-elf/lib/libc.a(lib_a-mallocr.o)
                              /OPT/altera/12.1/nios2eds/bin/gnu/H-i686-pc-linux-gnu/bin/../lib/gcc/nios2-elf/4.1.2/../../../../nios2-elf/lib/libc.a(lib_a-malloc.o) (_malloc_r)
/OPT/altera/12.1/nios2eds/bin/gnu/H-i686-pc-linux-gnu/bin/../lib/gcc/nios2-elf/4.1.2/../../../../nios2-elf/lib/libc.a(lib_a-mktm_r.o)
                              /OPT/altera/12.1/nios2eds/bin/gnu/H-i686-pc-linux-gnu/bin/../lib/gcc/nios2-elf/4.1.2/../../../../nios2-elf/lib/libc.a(lib_a-lcltime_r.o) (_mktm_r)
/OPT/altera/12.1/nios2eds/bin/gnu/H-i686-pc-linux-gnu/bin/../lib/gcc/nios2-elf/4.1.2/../../../../nios2-elf/lib/libc.a(lib_a-printf.o)
                              obj/default/hello_ucosii.o (printf)
/OPT/altera/12.1/nios2eds/bin/gnu/H-i686-pc-linux-gnu/bin/../lib/gcc/nios2-elf/4.1.2/../../../../nios2-elf/lib/libc.a(lib_a-puts.o)
                              obj/default/hello_ucosii.o (puts)
/OPT/altera/12.1/nios2eds/bin/gnu/H-i686-pc-linux-gnu/bin/../lib/gcc/nios2-elf/4.1.2/../../../../nios2-elf/lib/libc.a(lib_a-sbrkr.o)
                              /OPT/altera/12.1/nios2eds/bin/gnu/H-i686-pc-linux-gnu/bin/../lib/gcc/nios2-elf/4.1.2/../../../../nios2-elf/lib/libc.a(lib_a-mallocr.o) (_sbrk_r)
/OPT/altera/12.1/nios2eds/bin/gnu/H-i686-pc-linux-gnu/bin/../lib/gcc/nios2-elf/4.1.2/../../../../nios2-elf/lib/libc.a(lib_a-strlen.o)
                              /OPT/altera/12.1/nios2eds/bin/gnu/H-i686-pc-linux-gnu/bin/../lib/gcc/nios2-elf/4.1.2/../../../../nios2-elf/lib/libc.a(lib_a-puts.o) (strlen)
/OPT/altera/12.1/nios2eds/bin/gnu/H-i686-pc-linux-gnu/bin/../lib/gcc/nios2-elf/4.1.2/../../../../nios2-elf/lib/libc.a(lib_a-time.o)
                              obj/default/hello_ucosii.o (time)
/OPT/altera/12.1/nios2eds/bin/gnu/H-i686-pc-linux-gnu/bin/../lib/gcc/nios2-elf/4.1.2/../../../../nios2-elf/lib/libc.a(lib_a-tzlock.o)
                              /OPT/altera/12.1/nios2eds/bin/gnu/H-i686-pc-linux-gnu/bin/../lib/gcc/nios2-elf/4.1.2/../../../../nios2-elf/lib/libc.a(lib_a-mktm_r.o) (__tz_lock)
/OPT/altera/12.1/nios2eds/bin/gnu/H-i686-pc-linux-gnu/bin/../lib/gcc/nios2-elf/4.1.2/../../../../nios2-elf/lib/libc.a(lib_a-tzvars.o)
                              /OPT/altera/12.1/nios2eds/bin/gnu/H-i686-pc-linux-gnu/bin/../lib/gcc/nios2-elf/4.1.2/../../../../nios2-elf/lib/libc.a(lib_a-mktm_r.o) (_daylight)
/OPT/altera/12.1/nios2eds/bin/gnu/H-i686-pc-linux-gnu/bin/../lib/gcc/nios2-elf/4.1.2/../../../../nios2-elf/lib/libc.a(lib_a-vfprintf.o)
                              /OPT/altera/12.1/nios2eds/bin/gnu/H-i686-pc-linux-gnu/bin/../lib/gcc/nios2-elf/4.1.2/../../../../nios2-elf/lib/libc.a(lib_a-printf.o) (___vfprintf_internal_r)
/OPT/altera/12.1/nios2eds/bin/gnu/H-i686-pc-linux-gnu/bin/../lib/gcc/nios2-elf/4.1.2/../../../../nios2-elf/lib/libc.a(lib_a-wsetup.o)
                              /OPT/altera/12.1/nios2eds/bin/gnu/H-i686-pc-linux-gnu/bin/../lib/gcc/nios2-elf/4.1.2/../../../../nios2-elf/lib/libc.a(lib_a-vfprintf.o) (__swsetup_r)
/OPT/altera/12.1/nios2eds/bin/gnu/H-i686-pc-linux-gnu/bin/../lib/gcc/nios2-elf/4.1.2/../../../../nios2-elf/lib/libc.a(lib_a-asctime.o)
                              /OPT/altera/12.1/nios2eds/bin/gnu/H-i686-pc-linux-gnu/bin/../lib/gcc/nios2-elf/4.1.2/../../../../nios2-elf/lib/libc.a(lib_a-ctime.o) (asctime)
/OPT/altera/12.1/nios2eds/bin/gnu/H-i686-pc-linux-gnu/bin/../lib/gcc/nios2-elf/4.1.2/../../../../nios2-elf/lib/libc.a(lib_a-asctime_r.o)
                              /OPT/altera/12.1/nios2eds/bin/gnu/H-i686-pc-linux-gnu/bin/../lib/gcc/nios2-elf/4.1.2/../../../../nios2-elf/lib/libc.a(lib_a-asctime.o) (asctime_r)
/OPT/altera/12.1/nios2eds/bin/gnu/H-i686-pc-linux-gnu/bin/../lib/gcc/nios2-elf/4.1.2/../../../../nios2-elf/lib/libc.a(lib_a-dtoa.o)
                              /OPT/altera/12.1/nios2eds/bin/gnu/H-i686-pc-linux-gnu/bin/../lib/gcc/nios2-elf/4.1.2/../../../../nios2-elf/lib/libc.a(lib_a-vfprintf.o) (_dtoa_r)
/OPT/altera/12.1/nios2eds/bin/gnu/H-i686-pc-linux-gnu/bin/../lib/gcc/nios2-elf/4.1.2/../../../../nios2-elf/lib/libc.a(lib_a-fflush.o)
                              /OPT/altera/12.1/nios2eds/bin/gnu/H-i686-pc-linux-gnu/bin/../lib/gcc/nios2-elf/4.1.2/../../../../nios2-elf/lib/libc.a(lib_a-vfprintf.o) (_fflush_r)
/OPT/altera/12.1/nios2eds/bin/gnu/H-i686-pc-linux-gnu/bin/../lib/gcc/nios2-elf/4.1.2/../../../../nios2-elf/lib/libc.a(lib_a-findfp.o)
                              /OPT/altera/12.1/nios2eds/bin/gnu/H-i686-pc-linux-gnu/bin/../lib/gcc/nios2-elf/4.1.2/../../../../nios2-elf/lib/libc.a(lib_a-vfprintf.o) (__sinit)
/OPT/altera/12.1/nios2eds/bin/gnu/H-i686-pc-linux-gnu/bin/../lib/gcc/nios2-elf/4.1.2/../../../../nios2-elf/lib/libc.a(lib_a-freer.o)
                              /OPT/altera/12.1/nios2eds/bin/gnu/H-i686-pc-linux-gnu/bin/../lib/gcc/nios2-elf/4.1.2/../../../../nios2-elf/lib/libc.a(lib_a-malloc.o) (_free_r)
/OPT/altera/12.1/nios2eds/bin/gnu/H-i686-pc-linux-gnu/bin/../lib/gcc/nios2-elf/4.1.2/../../../../nios2-elf/lib/libc.a(lib_a-fvwrite.o)
                              /OPT/altera/12.1/nios2eds/bin/gnu/H-i686-pc-linux-gnu/bin/../lib/gcc/nios2-elf/4.1.2/../../../../nios2-elf/lib/libc.a(lib_a-puts.o) (__sfvwrite_r)
/OPT/altera/12.1/nios2eds/bin/gnu/H-i686-pc-linux-gnu/bin/../lib/gcc/nios2-elf/4.1.2/../../../../nios2-elf/lib/libc.a(lib_a-fwalk.o)
                              /OPT/altera/12.1/nios2eds/bin/gnu/H-i686-pc-linux-gnu/bin/../lib/gcc/nios2-elf/4.1.2/../../../../nios2-elf/lib/libc.a(lib_a-fflush.o) (_fwalk_reent)
/OPT/altera/12.1/nios2eds/bin/gnu/H-i686-pc-linux-gnu/bin/../lib/gcc/nios2-elf/4.1.2/../../../../nios2-elf/lib/libc.a(lib_a-gettimeofdayr.o)
                              /OPT/altera/12.1/nios2eds/bin/gnu/H-i686-pc-linux-gnu/bin/../lib/gcc/nios2-elf/4.1.2/../../../../nios2-elf/lib/libc.a(lib_a-time.o) (_gettimeofday_r)
/OPT/altera/12.1/nios2eds/bin/gnu/H-i686-pc-linux-gnu/bin/../lib/gcc/nios2-elf/4.1.2/../../../../nios2-elf/lib/libc.a(lib_a-gettzinfo.o)
                              /OPT/altera/12.1/nios2eds/bin/gnu/H-i686-pc-linux-gnu/bin/../lib/gcc/nios2-elf/4.1.2/../../../../nios2-elf/lib/libc.a(lib_a-mktm_r.o) (__gettzinfo)
/OPT/altera/12.1/nios2eds/bin/gnu/H-i686-pc-linux-gnu/bin/../lib/gcc/nios2-elf/4.1.2/../../../../nios2-elf/lib/libc.a(lib_a-impure.o)
                              /OPT/altera/12.1/nios2eds/bin/gnu/H-i686-pc-linux-gnu/bin/../lib/gcc/nios2-elf/4.1.2/../../../../nios2-elf/lib/libc.a(lib_a-lcltime.o) (_impure_ptr)
/OPT/altera/12.1/nios2eds/bin/gnu/H-i686-pc-linux-gnu/bin/../lib/gcc/nios2-elf/4.1.2/../../../../nios2-elf/lib/libc.a(lib_a-int_errno.o)
                              /OPT/altera/12.1/nios2eds/bin/gnu/H-i686-pc-linux-gnu/bin/../lib/gcc/nios2-elf/4.1.2/../../../../nios2-elf/lib/libc.a(lib_a-sbrkr.o) (errno)
/OPT/altera/12.1/nios2eds/bin/gnu/H-i686-pc-linux-gnu/bin/../lib/gcc/nios2-elf/4.1.2/../../../../nios2-elf/lib/libc.a(lib_a-locale.o)
                              /OPT/altera/12.1/nios2eds/bin/gnu/H-i686-pc-linux-gnu/bin/../lib/gcc/nios2-elf/4.1.2/../../../../nios2-elf/lib/libc.a(lib_a-vfprintf.o) (_localeconv_r)
/OPT/altera/12.1/nios2eds/bin/gnu/H-i686-pc-linux-gnu/bin/../lib/gcc/nios2-elf/4.1.2/../../../../nios2-elf/lib/libc.a(lib_a-makebuf.o)
                              /OPT/altera/12.1/nios2eds/bin/gnu/H-i686-pc-linux-gnu/bin/../lib/gcc/nios2-elf/4.1.2/../../../../nios2-elf/lib/libc.a(lib_a-wsetup.o) (__smakebuf_r)
/OPT/altera/12.1/nios2eds/bin/gnu/H-i686-pc-linux-gnu/bin/../lib/gcc/nios2-elf/4.1.2/../../../../nios2-elf/lib/libc.a(lib_a-memchr.o)
                              /OPT/altera/12.1/nios2eds/bin/gnu/H-i686-pc-linux-gnu/bin/../lib/gcc/nios2-elf/4.1.2/../../../../nios2-elf/lib/libc.a(lib_a-vfprintf.o) (memchr)
/OPT/altera/12.1/nios2eds/bin/gnu/H-i686-pc-linux-gnu/bin/../lib/gcc/nios2-elf/4.1.2/../../../../nios2-elf/lib/libc.a(lib_a-memcpy.o)
                              /OPT/altera/12.1/nios2eds/bin/gnu/H-i686-pc-linux-gnu/bin/../lib/gcc/nios2-elf/4.1.2/../../../../nios2-elf/lib/libc.a(lib_a-dtoa.o) (memcpy)
/OPT/altera/12.1/nios2eds/bin/gnu/H-i686-pc-linux-gnu/bin/../lib/gcc/nios2-elf/4.1.2/../../../../nios2-elf/lib/libc.a(lib_a-memmove.o)
                              /OPT/altera/12.1/nios2eds/bin/gnu/H-i686-pc-linux-gnu/bin/../lib/gcc/nios2-elf/4.1.2/../../../../nios2-elf/lib/libc.a(lib_a-fvwrite.o) (memmove)
/OPT/altera/12.1/nios2eds/bin/gnu/H-i686-pc-linux-gnu/bin/../lib/gcc/nios2-elf/4.1.2/../../../../nios2-elf/lib/libc.a(lib_a-memset.o)
                              /OPT/altera/12.1/nios2eds/bin/gnu/H-i686-pc-linux-gnu/bin/../lib/gcc/nios2-elf/4.1.2/../../../../nios2-elf/lib/libc.a(lib_a-findfp.o) (memset)
/OPT/altera/12.1/nios2eds/bin/gnu/H-i686-pc-linux-gnu/bin/../lib/gcc/nios2-elf/4.1.2/../../../../nios2-elf/lib/libc.a(lib_a-mprec.o)
                              /OPT/altera/12.1/nios2eds/bin/gnu/H-i686-pc-linux-gnu/bin/../lib/gcc/nios2-elf/4.1.2/../../../../nios2-elf/lib/libc.a(lib_a-dtoa.o) (_Bfree)
/OPT/altera/12.1/nios2eds/bin/gnu/H-i686-pc-linux-gnu/bin/../lib/gcc/nios2-elf/4.1.2/../../../../nios2-elf/lib/libc.a(lib_a-reallocr.o)
                              /OPT/altera/12.1/nios2eds/bin/gnu/H-i686-pc-linux-gnu/bin/../lib/gcc/nios2-elf/4.1.2/../../../../nios2-elf/lib/libc.a(lib_a-fvwrite.o) (_realloc_r)
/OPT/altera/12.1/nios2eds/bin/gnu/H-i686-pc-linux-gnu/bin/../lib/gcc/nios2-elf/4.1.2/../../../../nios2-elf/lib/libc.a(lib_a-s_isinfd.o)
                              /OPT/altera/12.1/nios2eds/bin/gnu/H-i686-pc-linux-gnu/bin/../lib/gcc/nios2-elf/4.1.2/../../../../nios2-elf/lib/libc.a(lib_a-vfprintf.o) (__isinfd)
/OPT/altera/12.1/nios2eds/bin/gnu/H-i686-pc-linux-gnu/bin/../lib/gcc/nios2-elf/4.1.2/../../../../nios2-elf/lib/libc.a(lib_a-s_isnand.o)
                              /OPT/altera/12.1/nios2eds/bin/gnu/H-i686-pc-linux-gnu/bin/../lib/gcc/nios2-elf/4.1.2/../../../../nios2-elf/lib/libc.a(lib_a-vfprintf.o) (__isnand)
/OPT/altera/12.1/nios2eds/bin/gnu/H-i686-pc-linux-gnu/bin/../lib/gcc/nios2-elf/4.1.2/../../../../nios2-elf/lib/libc.a(lib_a-sprintf.o)
                              /OPT/altera/12.1/nios2eds/bin/gnu/H-i686-pc-linux-gnu/bin/../lib/gcc/nios2-elf/4.1.2/../../../../nios2-elf/lib/libc.a(lib_a-asctime_r.o) (sprintf)
/OPT/altera/12.1/nios2eds/bin/gnu/H-i686-pc-linux-gnu/bin/../lib/gcc/nios2-elf/4.1.2/../../../../nios2-elf/lib/libc.a(lib_a-stdio.o)
                              /OPT/altera/12.1/nios2eds/bin/gnu/H-i686-pc-linux-gnu/bin/../lib/gcc/nios2-elf/4.1.2/../../../../nios2-elf/lib/libc.a(lib_a-findfp.o) (__sclose)
/OPT/altera/12.1/nios2eds/bin/gnu/H-i686-pc-linux-gnu/bin/../lib/gcc/nios2-elf/4.1.2/../../../../nios2-elf/lib/libc.a(lib_a-strcmp.o)
                              /OPT/altera/12.1/nios2eds/bin/gnu/H-i686-pc-linux-gnu/bin/../lib/gcc/nios2-elf/4.1.2/../../../../nios2-elf/lib/libc.a(lib_a-locale.o) (strcmp)
/OPT/altera/12.1/nios2eds/bin/gnu/H-i686-pc-linux-gnu/bin/../lib/gcc/nios2-elf/4.1.2/../../../../nios2-elf/lib/libc.a(lib_a-writer.o)
                              /OPT/altera/12.1/nios2eds/bin/gnu/H-i686-pc-linux-gnu/bin/../lib/gcc/nios2-elf/4.1.2/../../../../nios2-elf/lib/libc.a(lib_a-stdio.o) (_write_r)
/OPT/altera/12.1/nios2eds/bin/gnu/H-i686-pc-linux-gnu/bin/../lib/gcc/nios2-elf/4.1.2/../../../../nios2-elf/lib/libc.a(lib_a-callocr.o)
                              /OPT/altera/12.1/nios2eds/bin/gnu/H-i686-pc-linux-gnu/bin/../lib/gcc/nios2-elf/4.1.2/../../../../nios2-elf/lib/libc.a(lib_a-mprec.o) (_calloc_r)
/OPT/altera/12.1/nios2eds/bin/gnu/H-i686-pc-linux-gnu/bin/../lib/gcc/nios2-elf/4.1.2/../../../../nios2-elf/lib/libc.a(lib_a-closer.o)
                              /OPT/altera/12.1/nios2eds/bin/gnu/H-i686-pc-linux-gnu/bin/../lib/gcc/nios2-elf/4.1.2/../../../../nios2-elf/lib/libc.a(lib_a-stdio.o) (_close_r)
/OPT/altera/12.1/nios2eds/bin/gnu/H-i686-pc-linux-gnu/bin/../lib/gcc/nios2-elf/4.1.2/../../../../nios2-elf/lib/libc.a(lib_a-fclose.o)
                              /OPT/altera/12.1/nios2eds/bin/gnu/H-i686-pc-linux-gnu/bin/../lib/gcc/nios2-elf/4.1.2/../../../../nios2-elf/lib/libc.a(lib_a-findfp.o) (fclose)
/OPT/altera/12.1/nios2eds/bin/gnu/H-i686-pc-linux-gnu/bin/../lib/gcc/nios2-elf/4.1.2/../../../../nios2-elf/lib/libc.a(lib_a-fstatr.o)
                              /OPT/altera/12.1/nios2eds/bin/gnu/H-i686-pc-linux-gnu/bin/../lib/gcc/nios2-elf/4.1.2/../../../../nios2-elf/lib/libc.a(lib_a-makebuf.o) (_fstat_r)
/OPT/altera/12.1/nios2eds/bin/gnu/H-i686-pc-linux-gnu/bin/../lib/gcc/nios2-elf/4.1.2/../../../../nios2-elf/lib/libc.a(lib_a-isattyr.o)
                              /OPT/altera/12.1/nios2eds/bin/gnu/H-i686-pc-linux-gnu/bin/../lib/gcc/nios2-elf/4.1.2/../../../../nios2-elf/lib/libc.a(lib_a-makebuf.o) (_isatty_r)
/OPT/altera/12.1/nios2eds/bin/gnu/H-i686-pc-linux-gnu/bin/../lib/gcc/nios2-elf/4.1.2/../../../../nios2-elf/lib/libc.a(lib_a-lseekr.o)
                              /OPT/altera/12.1/nios2eds/bin/gnu/H-i686-pc-linux-gnu/bin/../lib/gcc/nios2-elf/4.1.2/../../../../nios2-elf/lib/libc.a(lib_a-stdio.o) (_lseek_r)
/OPT/altera/12.1/nios2eds/bin/gnu/H-i686-pc-linux-gnu/bin/../lib/gcc/nios2-elf/4.1.2/../../../../nios2-elf/lib/libc.a(lib_a-readr.o)
                              /OPT/altera/12.1/nios2eds/bin/gnu/H-i686-pc-linux-gnu/bin/../lib/gcc/nios2-elf/4.1.2/../../../../nios2-elf/lib/libc.a(lib_a-stdio.o) (_read_r)
/OPT/altera/12.1/nios2eds/bin/gnu/H-i686-pc-linux-gnu/bin/../lib/gcc/nios2-elf/4.1.2/libgcc.a(_udivdi3.o)
                              /OPT/altera/12.1/nios2eds/bin/gnu/H-i686-pc-linux-gnu/bin/../lib/gcc/nios2-elf/4.1.2/../../../../nios2-elf/lib/libc.a(lib_a-vfprintf.o) (__udivdi3)
/OPT/altera/12.1/nios2eds/bin/gnu/H-i686-pc-linux-gnu/bin/../lib/gcc/nios2-elf/4.1.2/libgcc.a(_umoddi3.o)
                              /OPT/altera/12.1/nios2eds/bin/gnu/H-i686-pc-linux-gnu/bin/../lib/gcc/nios2-elf/4.1.2/../../../../nios2-elf/lib/libc.a(lib_a-vfprintf.o) (__umoddi3)
/OPT/altera/12.1/nios2eds/bin/gnu/H-i686-pc-linux-gnu/bin/../lib/gcc/nios2-elf/4.1.2/libgcc.a(_addsub_df.o)
                              /OPT/altera/12.1/nios2eds/bin/gnu/H-i686-pc-linux-gnu/bin/../lib/gcc/nios2-elf/4.1.2/../../../../nios2-elf/lib/libc.a(lib_a-dtoa.o) (__subdf3)
/OPT/altera/12.1/nios2eds/bin/gnu/H-i686-pc-linux-gnu/bin/../lib/gcc/nios2-elf/4.1.2/libgcc.a(_mul_df.o)
                              /OPT/altera/12.1/nios2eds/bin/gnu/H-i686-pc-linux-gnu/bin/../lib/gcc/nios2-elf/4.1.2/../../../../nios2-elf/lib/libc.a(lib_a-dtoa.o) (__muldf3)
/OPT/altera/12.1/nios2eds/bin/gnu/H-i686-pc-linux-gnu/bin/../lib/gcc/nios2-elf/4.1.2/libgcc.a(_div_df.o)
                              /OPT/altera/12.1/nios2eds/bin/gnu/H-i686-pc-linux-gnu/bin/../lib/gcc/nios2-elf/4.1.2/../../../../nios2-elf/lib/libc.a(lib_a-dtoa.o) (__divdf3)
/OPT/altera/12.1/nios2eds/bin/gnu/H-i686-pc-linux-gnu/bin/../lib/gcc/nios2-elf/4.1.2/libgcc.a(_eq_df.o)
                              /OPT/altera/12.1/nios2eds/bin/gnu/H-i686-pc-linux-gnu/bin/../lib/gcc/nios2-elf/4.1.2/../../../../nios2-elf/lib/libc.a(lib_a-vfprintf.o) (__eqdf2)
/OPT/altera/12.1/nios2eds/bin/gnu/H-i686-pc-linux-gnu/bin/../lib/gcc/nios2-elf/4.1.2/libgcc.a(_ne_df.o)
                              /OPT/altera/12.1/nios2eds/bin/gnu/H-i686-pc-linux-gnu/bin/../lib/gcc/nios2-elf/4.1.2/../../../../nios2-elf/lib/libc.a(lib_a-vfprintf.o) (__nedf2)
/OPT/altera/12.1/nios2eds/bin/gnu/H-i686-pc-linux-gnu/bin/../lib/gcc/nios2-elf/4.1.2/libgcc.a(_gt_df.o)
                              /OPT/altera/12.1/nios2eds/bin/gnu/H-i686-pc-linux-gnu/bin/../lib/gcc/nios2-elf/4.1.2/../../../../nios2-elf/lib/libc.a(lib_a-dtoa.o) (__gtdf2)
/OPT/altera/12.1/nios2eds/bin/gnu/H-i686-pc-linux-gnu/bin/../lib/gcc/nios2-elf/4.1.2/libgcc.a(_ge_df.o)
                              /OPT/altera/12.1/nios2eds/bin/gnu/H-i686-pc-linux-gnu/bin/../lib/gcc/nios2-elf/4.1.2/../../../../nios2-elf/lib/libc.a(lib_a-dtoa.o) (__gedf2)
/OPT/altera/12.1/nios2eds/bin/gnu/H-i686-pc-linux-gnu/bin/../lib/gcc/nios2-elf/4.1.2/libgcc.a(_lt_df.o)
                              /OPT/altera/12.1/nios2eds/bin/gnu/H-i686-pc-linux-gnu/bin/../lib/gcc/nios2-elf/4.1.2/../../../../nios2-elf/lib/libc.a(lib_a-vfprintf.o) (__ltdf2)
/OPT/altera/12.1/nios2eds/bin/gnu/H-i686-pc-linux-gnu/bin/../lib/gcc/nios2-elf/4.1.2/libgcc.a(_si_to_df.o)
                              /OPT/altera/12.1/nios2eds/bin/gnu/H-i686-pc-linux-gnu/bin/../lib/gcc/nios2-elf/4.1.2/../../../../nios2-elf/lib/libc.a(lib_a-dtoa.o) (__floatsidf)
/OPT/altera/12.1/nios2eds/bin/gnu/H-i686-pc-linux-gnu/bin/../lib/gcc/nios2-elf/4.1.2/libgcc.a(_df_to_si.o)
                              /OPT/altera/12.1/nios2eds/bin/gnu/H-i686-pc-linux-gnu/bin/../lib/gcc/nios2-elf/4.1.2/../../../../nios2-elf/lib/libc.a(lib_a-dtoa.o) (__fixdfsi)
/OPT/altera/12.1/nios2eds/bin/gnu/H-i686-pc-linux-gnu/bin/../lib/gcc/nios2-elf/4.1.2/libgcc.a(_thenan_df.o)
                              /OPT/altera/12.1/nios2eds/bin/gnu/H-i686-pc-linux-gnu/bin/../lib/gcc/nios2-elf/4.1.2/libgcc.a(_addsub_df.o) (__thenan_df)
/OPT/altera/12.1/nios2eds/bin/gnu/H-i686-pc-linux-gnu/bin/../lib/gcc/nios2-elf/4.1.2/libgcc.a(_usi_to_df.o)
                              /OPT/altera/12.1/nios2eds/bin/gnu/H-i686-pc-linux-gnu/bin/../lib/gcc/nios2-elf/4.1.2/../../../../nios2-elf/lib/libc.a(lib_a-dtoa.o) (__floatunsidf)
/OPT/altera/12.1/nios2eds/bin/gnu/H-i686-pc-linux-gnu/bin/../lib/gcc/nios2-elf/4.1.2/libgcc.a(lib2-divmod.o)
                              /OPT/altera/12.1/nios2eds/bin/gnu/H-i686-pc-linux-gnu/bin/../lib/gcc/nios2-elf/4.1.2/../../../../nios2-elf/lib/libc.a(lib_a-mktm_r.o) (__divsi3)
/OPT/altera/12.1/nios2eds/bin/gnu/H-i686-pc-linux-gnu/bin/../lib/gcc/nios2-elf/4.1.2/libgcc.a(_muldi3.o)
                              /OPT/altera/12.1/nios2eds/bin/gnu/H-i686-pc-linux-gnu/bin/../lib/gcc/nios2-elf/4.1.2/libgcc.a(_mul_df.o) (__muldi3)
/OPT/altera/12.1/nios2eds/bin/gnu/H-i686-pc-linux-gnu/bin/../lib/gcc/nios2-elf/4.1.2/libgcc.a(_clz.o)
                              /OPT/altera/12.1/nios2eds/bin/gnu/H-i686-pc-linux-gnu/bin/../lib/gcc/nios2-elf/4.1.2/libgcc.a(_udivdi3.o) (__clz_tab)
/OPT/altera/12.1/nios2eds/bin/gnu/H-i686-pc-linux-gnu/bin/../lib/gcc/nios2-elf/4.1.2/libgcc.a(_clzsi2.o)
                              /OPT/altera/12.1/nios2eds/bin/gnu/H-i686-pc-linux-gnu/bin/../lib/gcc/nios2-elf/4.1.2/libgcc.a(_si_to_df.o) (__clzsi2)
/OPT/altera/12.1/nios2eds/bin/gnu/H-i686-pc-linux-gnu/bin/../lib/gcc/nios2-elf/4.1.2/libgcc.a(_pack_df.o)
                              /OPT/altera/12.1/nios2eds/bin/gnu/H-i686-pc-linux-gnu/bin/../lib/gcc/nios2-elf/4.1.2/libgcc.a(_addsub_df.o) (__pack_d)
/OPT/altera/12.1/nios2eds/bin/gnu/H-i686-pc-linux-gnu/bin/../lib/gcc/nios2-elf/4.1.2/libgcc.a(_unpack_df.o)
                              /OPT/altera/12.1/nios2eds/bin/gnu/H-i686-pc-linux-gnu/bin/../lib/gcc/nios2-elf/4.1.2/libgcc.a(_addsub_df.o) (__unpack_d)
/OPT/altera/12.1/nios2eds/bin/gnu/H-i686-pc-linux-gnu/bin/../lib/gcc/nios2-elf/4.1.2/libgcc.a(_fpcmp_parts_df.o)
                              /OPT/altera/12.1/nios2eds/bin/gnu/H-i686-pc-linux-gnu/bin/../lib/gcc/nios2-elf/4.1.2/libgcc.a(_eq_df.o) (__fpcmp_parts_d)
../vga_bsp//libucosii_bsp.a(alt_close.o)
                              /OPT/altera/12.1/nios2eds/bin/gnu/H-i686-pc-linux-gnu/bin/../lib/gcc/nios2-elf/4.1.2/../../../../nios2-elf/lib/libc.a(lib_a-closer.o) (close)
../vga_bsp//libucosii_bsp.a(alt_dev.o)
                              ../vga_bsp//libucosii_bsp.a(alt_close.o) (alt_fd_list)
../vga_bsp//libucosii_bsp.a(alt_errno.o)
                              ../vga_bsp//libucosii_bsp.a(alt_close.o) (alt_errno)
../vga_bsp//libucosii_bsp.a(alt_fstat.o)
                              /OPT/altera/12.1/nios2eds/bin/gnu/H-i686-pc-linux-gnu/bin/../lib/gcc/nios2-elf/4.1.2/../../../../nios2-elf/lib/libc.a(lib_a-fstatr.o) (fstat)
../vga_bsp//libucosii_bsp.a(alt_gettod.o)
                              /OPT/altera/12.1/nios2eds/bin/gnu/H-i686-pc-linux-gnu/bin/../lib/gcc/nios2-elf/4.1.2/../../../../nios2-elf/lib/libc.a(lib_a-gettimeofdayr.o) (gettimeofday)
../vga_bsp//libucosii_bsp.a(alt_isatty.o)
                              /OPT/altera/12.1/nios2eds/bin/gnu/H-i686-pc-linux-gnu/bin/../lib/gcc/nios2-elf/4.1.2/../../../../nios2-elf/lib/libc.a(lib_a-isattyr.o) (isatty)
../vga_bsp//libucosii_bsp.a(alt_load.o)
                              ../vga_bsp//obj/HAL/src/crt0.o (alt_load)
../vga_bsp//libucosii_bsp.a(alt_lseek.o)
                              /OPT/altera/12.1/nios2eds/bin/gnu/H-i686-pc-linux-gnu/bin/../lib/gcc/nios2-elf/4.1.2/../../../../nios2-elf/lib/libc.a(lib_a-lseekr.o) (lseek)
../vga_bsp//libucosii_bsp.a(alt_main.o)
                              ../vga_bsp//obj/HAL/src/crt0.o (alt_main)
../vga_bsp//libucosii_bsp.a(alt_read.o)
                              /OPT/altera/12.1/nios2eds/bin/gnu/H-i686-pc-linux-gnu/bin/../lib/gcc/nios2-elf/4.1.2/../../../../nios2-elf/lib/libc.a(lib_a-readr.o) (read)
../vga_bsp//libucosii_bsp.a(alt_release_fd.o)
                              ../vga_bsp//libucosii_bsp.a(alt_close.o) (alt_release_fd)
../vga_bsp//libucosii_bsp.a(alt_sbrk.o)
                              /OPT/altera/12.1/nios2eds/bin/gnu/H-i686-pc-linux-gnu/bin/../lib/gcc/nios2-elf/4.1.2/../../../../nios2-elf/lib/libc.a(lib_a-sbrkr.o) (sbrk)
../vga_bsp//libucosii_bsp.a(alt_tick.o)
                              ../vga_bsp//libucosii_bsp.a(alt_gettod.o) (_alt_tick_rate)
../vga_bsp//libucosii_bsp.a(alt_write.o)
                              /OPT/altera/12.1/nios2eds/bin/gnu/H-i686-pc-linux-gnu/bin/../lib/gcc/nios2-elf/4.1.2/../../../../nios2-elf/lib/libc.a(lib_a-writer.o) (write)
../vga_bsp//libucosii_bsp.a(alt_env_lock.o)
                              ../vga_bsp//libucosii_bsp.a(alt_main.o) (alt_envsem)
../vga_bsp//libucosii_bsp.a(alt_malloc_lock.o)
                              /OPT/altera/12.1/nios2eds/bin/gnu/H-i686-pc-linux-gnu/bin/../lib/gcc/nios2-elf/4.1.2/../../../../nios2-elf/lib/libc.a(lib_a-mallocr.o) (__malloc_lock)
../vga_bsp//libucosii_bsp.a(os_core.o)
                              ../vga_bsp//libucosii_bsp.a(alt_main.o) (OSInit)
../vga_bsp//libucosii_bsp.a(os_dbg.o)
                              ../vga_bsp//libucosii_bsp.a(os_core.o) (OSDebugInit)
../vga_bsp//libucosii_bsp.a(os_flag.o)
                              ../vga_bsp//libucosii_bsp.a(os_core.o) (OS_FlagInit)
../vga_bsp//libucosii_bsp.a(os_mem.o)
                              ../vga_bsp//libucosii_bsp.a(os_core.o) (OS_MemInit)
../vga_bsp//libucosii_bsp.a(os_q.o)
                              ../vga_bsp//libucosii_bsp.a(os_core.o) (OS_QInit)
../vga_bsp//libucosii_bsp.a(os_sem.o)
                              ../vga_bsp//libucosii_bsp.a(alt_main.o) (OSSemCreate)
../vga_bsp//libucosii_bsp.a(os_task.o)
                              ../vga_bsp//libucosii_bsp.a(os_core.o) (OSTaskCreateExt)
../vga_bsp//libucosii_bsp.a(os_time.o)
                              ../vga_bsp//libucosii_bsp.a(os_core.o) (OSTimeDly)
../vga_bsp//libucosii_bsp.a(alt_sys_init.o)
                              ../vga_bsp//libucosii_bsp.a(alt_main.o) (alt_irq_init)
../vga_bsp//libucosii_bsp.a(altera_avalon_jtag_uart_fd.o)
                              ../vga_bsp//libucosii_bsp.a(alt_sys_init.o) (altera_avalon_jtag_uart_read_fd)
../vga_bsp//libucosii_bsp.a(altera_avalon_jtag_uart_init.o)
                              ../vga_bsp//libucosii_bsp.a(alt_sys_init.o) (altera_avalon_jtag_uart_init)
../vga_bsp//libucosii_bsp.a(altera_avalon_jtag_uart_ioctl.o)
                              ../vga_bsp//libucosii_bsp.a(altera_avalon_jtag_uart_fd.o) (altera_avalon_jtag_uart_ioctl)
../vga_bsp//libucosii_bsp.a(altera_avalon_jtag_uart_read.o)
                              ../vga_bsp//libucosii_bsp.a(altera_avalon_jtag_uart_fd.o) (altera_avalon_jtag_uart_read)
../vga_bsp//libucosii_bsp.a(altera_avalon_jtag_uart_write.o)
                              ../vga_bsp//libucosii_bsp.a(altera_avalon_jtag_uart_fd.o) (altera_avalon_jtag_uart_write)
../vga_bsp//libucosii_bsp.a(altera_avalon_timer_sc.o)
                              ../vga_bsp//libucosii_bsp.a(alt_sys_init.o) (alt_avalon_timer_sc_init)
../vga_bsp//libucosii_bsp.a(altera_up_avalon_character_lcd.o)
                              ../vga_bsp//libucosii_bsp.a(alt_sys_init.o) (alt_up_character_lcd_init)
../vga_bsp//libucosii_bsp.a(altera_up_avalon_video_pixel_buffer_dma.o)
                              obj/default/hello_ucosii.o (alt_up_pixel_buffer_dma_open_dev)
../vga_bsp//libucosii_bsp.a(altera_up_sd_card_avalon_interface.o)
                              obj/default/hello_ucosii.o (alt_up_sd_card_open_dev)
../vga_bsp//libucosii_bsp.a(alt_alarm_start.o)
                              ../vga_bsp//libucosii_bsp.a(altera_avalon_jtag_uart_init.o) (alt_alarm_start)
../vga_bsp//libucosii_bsp.a(alt_dcache_flush_all.o)
                              ../vga_bsp//libucosii_bsp.a(alt_load.o) (alt_dcache_flush_all)
../vga_bsp//libucosii_bsp.a(alt_dev_llist_insert.o)
                              ../vga_bsp//libucosii_bsp.a(alt_sys_init.o) (alt_dev_llist_insert)
../vga_bsp//libucosii_bsp.a(alt_do_ctors.o)
                              ../vga_bsp//libucosii_bsp.a(alt_main.o) (_do_ctors)
../vga_bsp//libucosii_bsp.a(alt_do_dtors.o)
                              ../vga_bsp//libucosii_bsp.a(alt_main.o) (_do_dtors)
../vga_bsp//libucosii_bsp.a(alt_find_dev.o)
                              ../vga_bsp//libucosii_bsp.a(altera_up_avalon_character_lcd.o) (alt_find_dev)
../vga_bsp//libucosii_bsp.a(alt_icache_flush_all.o)
                              ../vga_bsp//libucosii_bsp.a(alt_load.o) (alt_icache_flush_all)
../vga_bsp//libucosii_bsp.a(alt_iic.o)
                              ../vga_bsp//libucosii_bsp.a(altera_avalon_jtag_uart_init.o) (alt_ic_isr_register)
../vga_bsp//libucosii_bsp.a(alt_iic_isr_register.o)
                              ../vga_bsp//libucosii_bsp.a(alt_iic.o) (alt_iic_isr_register)
../vga_bsp//libucosii_bsp.a(alt_io_redirect.o)
                              ../vga_bsp//libucosii_bsp.a(alt_main.o) (alt_io_redirect)
../vga_bsp//libucosii_bsp.a(alt_irq_entry.o)
                              ../vga_bsp//libucosii_bsp.a(alt_iic_isr_register.o) (alt_irq_entry)
../vga_bsp//libucosii_bsp.a(alt_irq_handler.o)
                              ../vga_bsp//libucosii_bsp.a(alt_iic_isr_register.o) (alt_irq_handler)
../vga_bsp//libucosii_bsp.a(alt_irq_vars.o)
                              ../vga_bsp//libucosii_bsp.a(alt_iic.o) (alt_irq_active)
../vga_bsp//libucosii_bsp.a(alt_open.o)
                              ../vga_bsp//libucosii_bsp.a(alt_io_redirect.o) (open)
../vga_bsp//libucosii_bsp.a(altera_nios2_qsys_irq.o)
                              ../vga_bsp//libucosii_bsp.a(alt_sys_init.o) (altera_nios2_qsys_irq_init)
../vga_bsp//libucosii_bsp.a(os_cpu_a.o)
                              ../vga_bsp//libucosii_bsp.a(os_core.o) (OSIntCtxSw)
../vga_bsp//libucosii_bsp.a(os_cpu_c.o)
                              ../vga_bsp//libucosii_bsp.a(os_task.o) (OSTaskStkInit)
../vga_bsp//libucosii_bsp.a(alt_exception_entry.o)
                              ../vga_bsp//libucosii_bsp.a(alt_irq_entry.o) (alt_exception)
../vga_bsp//libucosii_bsp.a(alt_find_file.o)
                              ../vga_bsp//libucosii_bsp.a(alt_open.o) (alt_find_file)
../vga_bsp//libucosii_bsp.a(alt_get_fd.o)
                              ../vga_bsp//libucosii_bsp.a(alt_open.o) (alt_get_fd)
../vga_bsp//libucosii_bsp.a(alt_icache_flush.o)
                              ../vga_bsp//libucosii_bsp.a(alt_icache_flush_all.o) (alt_icache_flush)
/OPT/altera/12.1/nios2eds/bin/gnu/H-i686-pc-linux-gnu/bin/../lib/gcc/nios2-elf/4.1.2/../../../../nios2-elf/lib/libc.a(lib_a-atexit.o)
                              ../vga_bsp//libucosii_bsp.a(alt_main.o) (atexit)
/OPT/altera/12.1/nios2eds/bin/gnu/H-i686-pc-linux-gnu/bin/../lib/gcc/nios2-elf/4.1.2/../../../../nios2-elf/lib/libc.a(lib_a-exit.o)
                              ../vga_bsp//libucosii_bsp.a(alt_main.o) (exit)
/OPT/altera/12.1/nios2eds/bin/gnu/H-i686-pc-linux-gnu/bin/../lib/gcc/nios2-elf/4.1.2/../../../../nios2-elf/lib/libc.a(lib_a-memcmp.o)
                              ../vga_bsp//libucosii_bsp.a(alt_find_dev.o) (memcmp)
/OPT/altera/12.1/nios2eds/bin/gnu/H-i686-pc-linux-gnu/bin/../lib/gcc/nios2-elf/4.1.2/../../../../nios2-elf/lib/libc.a(lib_a-__atexit.o)
                              /OPT/altera/12.1/nios2eds/bin/gnu/H-i686-pc-linux-gnu/bin/../lib/gcc/nios2-elf/4.1.2/../../../../nios2-elf/lib/libc.a(lib_a-atexit.o) (__register_exitproc)
/OPT/altera/12.1/nios2eds/bin/gnu/H-i686-pc-linux-gnu/bin/../lib/gcc/nios2-elf/4.1.2/../../../../nios2-elf/lib/libc.a(lib_a-__call_atexit.o)
                              /OPT/altera/12.1/nios2eds/bin/gnu/H-i686-pc-linux-gnu/bin/../lib/gcc/nios2-elf/4.1.2/../../../../nios2-elf/lib/libc.a(lib_a-exit.o) (__call_exitprocs)
../vga_bsp//libucosii_bsp.a(alt_exit.o)
                              /OPT/altera/12.1/nios2eds/bin/gnu/H-i686-pc-linux-gnu/bin/../lib/gcc/nios2-elf/4.1.2/../../../../nios2-elf/lib/libc.a(lib_a-exit.o) (_exit)

Allocating common symbols
Common symbol       size              file

alt_irq             0x100             ../vga_bsp//libucosii_bsp.a(alt_irq_handler.o)
task1_stk           0x2000            obj/default/hello_ucosii.o
OSLockNesting       0x1               ../vga_bsp//libucosii_bsp.a(os_core.o)
OSRunning           0x1               ../vga_bsp//libucosii_bsp.a(os_core.o)
OSIdleCtr           0x4               ../vga_bsp//libucosii_bsp.a(os_core.o)
OSPrioHighRdy       0x1               ../vga_bsp//libucosii_bsp.a(os_core.o)
errno               0x4               /OPT/altera/12.1/nios2eds/bin/gnu/H-i686-pc-linux-gnu/bin/../lib/gcc/nios2-elf/4.1.2/../../../../nios2-elf/lib/libc.a(lib_a-int_errno.o)
alt_heapsem         0x4               ../vga_bsp//libucosii_bsp.a(alt_malloc_lock.o)
OSFlagTbl           0x370             ../vga_bsp//libucosii_bsp.a(os_core.o)
OSPrioCur           0x1               ../vga_bsp//libucosii_bsp.a(os_core.o)
OSTCBList           0x4               ../vga_bsp//libucosii_bsp.a(os_core.o)
alt_fd_list_lock    0x4               ../vga_bsp//libucosii_bsp.a(alt_dev.o)
OSMemTbl            0xc30             ../vga_bsp//libucosii_bsp.a(os_core.o)
OSTickStepState     0x1               ../vga_bsp//libucosii_bsp.a(os_core.o)
OSTaskStatStk       0x800             ../vga_bsp//libucosii_bsp.a(os_core.o)
OSCtxSwCtr          0x4               ../vga_bsp//libucosii_bsp.a(os_core.o)
OSIdleCtrMax        0x4               ../vga_bsp//libucosii_bsp.a(os_core.o)
OSTCBFreeList       0x4               ../vga_bsp//libucosii_bsp.a(os_core.o)
OSCPUUsage          0x1               ../vga_bsp//libucosii_bsp.a(os_core.o)
OSTaskCtr           0x1               ../vga_bsp//libucosii_bsp.a(os_core.o)
OSMemFreeList       0x4               ../vga_bsp//libucosii_bsp.a(os_core.o)
search_data         0x14              ../vga_bsp//libucosii_bsp.a(altera_up_sd_card_avalon_interface.o)
OSQTbl              0x1e0             ../vga_bsp//libucosii_bsp.a(os_core.o)
boot_sector_data    0x54              ../vga_bsp//libucosii_bsp.a(altera_up_sd_card_avalon_interface.o)
OSTCBHighRdy        0x4               ../vga_bsp//libucosii_bsp.a(os_core.o)
OSQFreeList         0x4               ../vga_bsp//libucosii_bsp.a(os_core.o)
OSRdyGrp            0x1               ../vga_bsp//libucosii_bsp.a(os_core.o)
task2_stk           0x2000            obj/default/hello_ucosii.o
_atexit0            0x190             /OPT/altera/12.1/nios2eds/bin/gnu/H-i686-pc-linux-gnu/bin/../lib/gcc/nios2-elf/4.1.2/../../../../nios2-elf/lib/libc.a(lib_a-atexit.o)
OSRdyTbl            0x3               ../vga_bsp//libucosii_bsp.a(os_core.o)
OSEventFreeList     0x4               ../vga_bsp//libucosii_bsp.a(os_core.o)
active_files        0x500             ../vga_bsp//libucosii_bsp.a(altera_up_sd_card_avalon_interface.o)
OSIntNesting        0x1               ../vga_bsp//libucosii_bsp.a(os_core.o)
OSTCBCur            0x4               ../vga_bsp//libucosii_bsp.a(os_core.o)
OSTime              0x4               ../vga_bsp//libucosii_bsp.a(os_core.o)
OSTaskIdleStk       0x800             ../vga_bsp//libucosii_bsp.a(os_core.o)
OSEventTbl          0xb40             ../vga_bsp//libucosii_bsp.a(os_core.o)
OSTCBTbl            0x510             ../vga_bsp//libucosii_bsp.a(os_core.o)
OSFlagFreeList      0x4               ../vga_bsp//libucosii_bsp.a(os_core.o)
OSStatRdy           0x1               ../vga_bsp//libucosii_bsp.a(os_core.o)
OSTCBPrioTbl        0x54              ../vga_bsp//libucosii_bsp.a(os_core.o)
alt_envsem          0x4               ../vga_bsp//libucosii_bsp.a(alt_env_lock.o)
OSIdleCtrRun        0x4               ../vga_bsp//libucosii_bsp.a(os_core.o)

Memory Configuration

Name             Origin             Length             Attributes
sdram_0          0x00800000         0x00800000
reset            0x01084000         0x00000020
onchip_memory2_0 0x01084020         0x00003fe0
*default*        0x00000000         0xffffffff

Linker script and memory map

LOAD ../vga_bsp//obj/HAL/src/crt0.o
LOAD obj/default/hello_ucosii.o
LOAD /OPT/altera/12.1/nios2eds/bin/gnu/H-i686-pc-linux-gnu/bin/../lib/gcc/nios2-elf/4.1.2/../../../../nios2-elf/lib/libstdc++.a
LOAD /OPT/altera/12.1/nios2eds/bin/gnu/H-i686-pc-linux-gnu/bin/../lib/gcc/nios2-elf/4.1.2/../../../../nios2-elf/lib/libm.a
LOAD /OPT/altera/12.1/nios2eds/bin/gnu/H-i686-pc-linux-gnu/bin/../lib/gcc/nios2-elf/4.1.2/libgcc.a
START GROUP
LOAD /OPT/altera/12.1/nios2eds/bin/gnu/H-i686-pc-linux-gnu/bin/../lib/gcc/nios2-elf/4.1.2/../../../../nios2-elf/lib/libc.a
LOAD /OPT/altera/12.1/nios2eds/bin/gnu/H-i686-pc-linux-gnu/bin/../lib/gcc/nios2-elf/4.1.2/libgcc.a
LOAD ../vga_bsp//libucosii_bsp.a
END GROUP
LOAD /OPT/altera/12.1/nios2eds/bin/gnu/H-i686-pc-linux-gnu/bin/../lib/gcc/nios2-elf/4.1.2/libgcc.a
                0x00800000                __alt_mem_sdram_0 = 0x800000
                0x01084000                __alt_mem_onchip_memory2_0 = 0x1084000

.entry          0x01084000       0x20
 *(.entry)
 .entry         0x01084000       0x20 ../vga_bsp//obj/HAL/src/crt0.o
                0x01084000                __reset

.exceptions     0x01084020      0x19c load address 0x00800000
                0x01084020                PROVIDE (__ram_exceptions_start, ABSOLUTE (.))
                0x01084020                . = ALIGN (0x20)
 *(.irq)
 *(.exceptions.entry.label)
 .exceptions.entry.label
                0x01084020        0x0 ../vga_bsp//libucosii_bsp.a(alt_irq_entry.o)
                0x01084020                alt_irq_entry
 .exceptions.entry.label
                0x01084020        0x0 ../vga_bsp//libucosii_bsp.a(alt_exception_entry.o)
                0x01084020                alt_exception
 *(.exceptions.entry.user)
 *(.exceptions.entry)
 .exceptions.entry
                0x01084020       0x54 ../vga_bsp//libucosii_bsp.a(alt_exception_entry.o)
 *(.exceptions.irqtest.user)
 *(.exceptions.irqtest)
 .exceptions.irqtest
                0x01084074       0x10 ../vga_bsp//libucosii_bsp.a(alt_irq_entry.o)
 *(.exceptions.irqhandler.user)
 *(.exceptions.irqhandler)
 .exceptions.irqhandler
                0x01084084        0x4 ../vga_bsp//libucosii_bsp.a(alt_irq_entry.o)
 *(.exceptions.irqreturn.user)
 *(.exceptions.irqreturn)
 .exceptions.irqreturn
                0x01084088        0x4 ../vga_bsp//libucosii_bsp.a(alt_irq_entry.o)
 *(.exceptions.notirq.label)
 .exceptions.notirq.label
                0x0108408c        0x0 ../vga_bsp//libucosii_bsp.a(alt_irq_entry.o)
 *(.exceptions.notirq.user)
 *(.exceptions.notirq)
 .exceptions.notirq
                0x0108408c        0x8 ../vga_bsp//libucosii_bsp.a(alt_exception_entry.o)
 *(.exceptions.soft.user)
 *(.exceptions.soft)
 *(.exceptions.unknown.user)
 *(.exceptions.unknown)
 .exceptions.unknown
                0x01084094        0x4 ../vga_bsp//libucosii_bsp.a(alt_exception_entry.o)
 *(.exceptions.exit.label)
 .exceptions.exit.label
                0x01084098        0x0 ../vga_bsp//libucosii_bsp.a(alt_irq_entry.o)
 .exceptions.exit.label
                0x01084098        0x0 ../vga_bsp//libucosii_bsp.a(alt_exception_entry.o)
 *(.exceptions.exit.user)
 *(.exceptions.exit)
 .exceptions.exit
                0x01084098       0x54 ../vga_bsp//libucosii_bsp.a(alt_exception_entry.o)
 *(.exceptions)
 .exceptions    0x010840ec       0xd0 ../vga_bsp//libucosii_bsp.a(alt_irq_handler.o)
                0x010840ec                alt_irq_handler
                0x010841bc                PROVIDE (__ram_exceptions_end, ABSOLUTE (.))
                0x00800000                PROVIDE (__flash_exceptions_start, LOADADDR (.exceptions))

.text           0x0080019c    0x1c0e0
                0x0080019c                PROVIDE (stext, ABSOLUTE (.))
 *(.interp)
 *(.hash)
 *(.dynsym)
 *(.dynstr)
 *(.gnu.version)
 *(.gnu.version_d)
 *(.gnu.version_r)
 *(.rel.init)
 *(.rela.init)
 *(.rel.text .rel.text.* .rel.gnu.linkonce.t.*)
 *(.rela.text .rela.text.* .rela.gnu.linkonce.t.*)
 *(.rel.fini)
 *(.rela.fini)
 *(.rel.rodata .rel.rodata.* .rel.gnu.linkonce.r.*)
 *(.rela.rodata .rela.rodata.* .rela.gnu.linkonce.r.*)
 *(.rel.data .rel.data.* .rel.gnu.linkonce.d.*)
 *(.rela.data .rela.data.* .rela.gnu.linkonce.d.*)
 *(.rel.tdata .rel.tdata.* .rel.gnu.linkonce.td.*)
 *(.rela.tdata .rela.tdata.* .rela.gnu.linkonce.td.*)
 *(.rel.tbss .rel.tbss.* .rel.gnu.linkonce.tb.*)
 *(.rela.tbss .rela.tbss.* .rela.gnu.linkonce.tb.*)
 *(.rel.ctors)
 *(.rela.ctors)
 *(.rel.dtors)
 *(.rela.dtors)
 *(.rel.got)
 *(.rela.got)
 *(.rel.sdata .rel.sdata.* .rel.gnu.linkonce.s.*)
 *(.rela.sdata .rela.sdata.* .rela.gnu.linkonce.s.*)
 *(.rel.sbss .rel.sbss.* .rel.gnu.linkonce.sb.*)
 *(.rela.sbss .rela.sbss.* .rela.gnu.linkonce.sb.*)
 *(.rel.sdata2 .rel.sdata2.* .rel.gnu.linkonce.s2.*)
 *(.rela.sdata2 .rela.sdata2.* .rela.gnu.linkonce.s2.*)
 *(.rel.sbss2 .rel.sbss2.* .rel.gnu.linkonce.sb2.*)
 *(.rela.sbss2 .rela.sbss2.* .rela.gnu.linkonce.sb2.*)
 *(.rel.bss .rel.bss.* .rel.gnu.linkonce.b.*)
 *(.rela.bss .rela.bss.* .rela.gnu.linkonce.b.*)
 *(.rel.plt)
 *(.rela.plt)
 *(.rel.dyn)
 *(.init)
 *(.plt)
 *(.text .stub .text.* .gnu.linkonce.t.*)
 .text          0x0080019c       0x4c ../vga_bsp//obj/HAL/src/crt0.o
                0x0080019c                _start
 .text          0x008001e8      0x440 obj/default/hello_ucosii.o
                0x008001e8                load_bmp
                0x0080038c                draw_bitmap
                0x00800434                main
 .text          0x00800628       0x1c /OPT/altera/12.1/nios2eds/bin/gnu/H-i686-pc-linux-gnu/bin/../lib/gcc/nios2-elf/4.1.2/../../../../nios2-elf/lib/libc.a(lib_a-ctime.o)
                0x00800628                ctime
 .text          0x00800644       0x14 /OPT/altera/12.1/nios2eds/bin/gnu/H-i686-pc-linux-gnu/bin/../lib/gcc/nios2-elf/4.1.2/../../../../nios2-elf/lib/libc.a(lib_a-lcltime.o)
                0x00800644                localtime
 .text          0x00800658        0x8 /OPT/altera/12.1/nios2eds/bin/gnu/H-i686-pc-linux-gnu/bin/../lib/gcc/nios2-elf/4.1.2/../../../../nios2-elf/lib/libc.a(lib_a-lcltime_r.o)
                0x00800658                localtime_r
 .text          0x00800660       0x28 /OPT/altera/12.1/nios2eds/bin/gnu/H-i686-pc-linux-gnu/bin/../lib/gcc/nios2-elf/4.1.2/../../../../nios2-elf/lib/libc.a(lib_a-malloc.o)
                0x00800660                free
                0x00800674                malloc
 .text          0x00800688      0x740 /OPT/altera/12.1/nios2eds/bin/gnu/H-i686-pc-linux-gnu/bin/../lib/gcc/nios2-elf/4.1.2/../../../../nios2-elf/lib/libc.a(lib_a-mallocr.o)
                0x00800688                _malloc_r
 .text          0x00800dc8      0x71c /OPT/altera/12.1/nios2eds/bin/gnu/H-i686-pc-linux-gnu/bin/../lib/gcc/nios2-elf/4.1.2/../../../../nios2-elf/lib/libc.a(lib_a-mktm_r.o)
                0x00800dc8                __tzcalc_limits
                0x00800ffc                _mktm_r
 .text          0x008014e4       0x78 /OPT/altera/12.1/nios2eds/bin/gnu/H-i686-pc-linux-gnu/bin/../lib/gcc/nios2-elf/4.1.2/../../../../nios2-elf/lib/libc.a(lib_a-printf.o)
                0x008014e4                printf
                0x00801528                _printf_r
 .text          0x0080155c       0xb4 /OPT/altera/12.1/nios2eds/bin/gnu/H-i686-pc-linux-gnu/bin/../lib/gcc/nios2-elf/4.1.2/../../../../nios2-elf/lib/libc.a(lib_a-puts.o)
                0x0080155c                _puts_r
                0x008015fc                puts
 .text          0x00801610       0x70 /OPT/altera/12.1/nios2eds/bin/gnu/H-i686-pc-linux-gnu/bin/../lib/gcc/nios2-elf/4.1.2/../../../../nios2-elf/lib/libc.a(lib_a-sbrkr.o)
                0x00801610                _sbrk_r
 .text          0x00801680       0x74 /OPT/altera/12.1/nios2eds/bin/gnu/H-i686-pc-linux-gnu/bin/../lib/gcc/nios2-elf/4.1.2/../../../../nios2-elf/lib/libc.a(lib_a-strlen.o)
                0x00801680                strlen
 .text          0x008016f4       0x5c /OPT/altera/12.1/nios2eds/bin/gnu/H-i686-pc-linux-gnu/bin/../lib/gcc/nios2-elf/4.1.2/../../../../nios2-elf/lib/libc.a(lib_a-time.o)
                0x008016f4                time
 .text          0x00801750        0x8 /OPT/altera/12.1/nios2eds/bin/gnu/H-i686-pc-linux-gnu/bin/../lib/gcc/nios2-elf/4.1.2/../../../../nios2-elf/lib/libc.a(lib_a-tzlock.o)
                0x00801750                __tz_lock
                0x00801754                __tz_unlock
 .text          0x00801758        0x0 /OPT/altera/12.1/nios2eds/bin/gnu/H-i686-pc-linux-gnu/bin/../lib/gcc/nios2-elf/4.1.2/../../../../nios2-elf/lib/libc.a(lib_a-tzvars.o)
 .text          0x00801758     0x1f28 /OPT/altera/12.1/nios2eds/bin/gnu/H-i686-pc-linux-gnu/bin/../lib/gcc/nios2-elf/4.1.2/../../../../nios2-elf/lib/libc.a(lib_a-vfprintf.o)
                0x008017b0                ___vfprintf_internal_r
                0x0080365c                __vfprintf_internal
 .text          0x00803680      0x13c /OPT/altera/12.1/nios2eds/bin/gnu/H-i686-pc-linux-gnu/bin/../lib/gcc/nios2-elf/4.1.2/../../../../nios2-elf/lib/libc.a(lib_a-wsetup.o)
                0x00803680                __swsetup_r
 .text          0x008037bc       0x14 /OPT/altera/12.1/nios2eds/bin/gnu/H-i686-pc-linux-gnu/bin/../lib/gcc/nios2-elf/4.1.2/../../../../nios2-elf/lib/libc.a(lib_a-asctime.o)
                0x008037bc                asctime
 .text          0x008037d0       0x90 /OPT/altera/12.1/nios2eds/bin/gnu/H-i686-pc-linux-gnu/bin/../lib/gcc/nios2-elf/4.1.2/../../../../nios2-elf/lib/libc.a(lib_a-asctime_r.o)
                0x008037d0                asctime_r
 .text          0x00803860     0x17cc /OPT/altera/12.1/nios2eds/bin/gnu/H-i686-pc-linux-gnu/bin/../lib/gcc/nios2-elf/4.1.2/../../../../nios2-elf/lib/libc.a(lib_a-dtoa.o)
                0x00803a78                _dtoa_r
 .text          0x0080502c      0x230 /OPT/altera/12.1/nios2eds/bin/gnu/H-i686-pc-linux-gnu/bin/../lib/gcc/nios2-elf/4.1.2/../../../../nios2-elf/lib/libc.a(lib_a-fflush.o)
                0x0080502c                _fflush_r
                0x00805228                fflush
 .text          0x0080525c      0x2c0 /OPT/altera/12.1/nios2eds/bin/gnu/H-i686-pc-linux-gnu/bin/../lib/gcc/nios2-elf/4.1.2/../../../../nios2-elf/lib/libc.a(lib_a-findfp.o)
                0x008052b4                __sfp_lock_acquire
                0x008052b8                __sfp_lock_release
                0x008052bc                __sinit_lock_acquire
                0x008052c0                __sinit_lock_release
                0x008052c4                __sinit
                0x00805378                __fp_unlock_all
                0x00805390                __fp_lock_all
                0x008053a8                _cleanup_r
                0x008053b4                _cleanup
                0x008053c4                __sfmoreglue
                0x0080542c                __sfp
 .text          0x0080551c      0x440 /OPT/altera/12.1/nios2eds/bin/gnu/H-i686-pc-linux-gnu/bin/../lib/gcc/nios2-elf/4.1.2/../../../../nios2-elf/lib/libc.a(lib_a-freer.o)
                0x0080551c                _malloc_trim_r
                0x00805648                _free_r
 .text          0x0080595c      0x49c /OPT/altera/12.1/nios2eds/bin/gnu/H-i686-pc-linux-gnu/bin/../lib/gcc/nios2-elf/4.1.2/../../../../nios2-elf/lib/libc.a(lib_a-fvwrite.o)
                0x0080595c                __sfvwrite_r
 .text          0x00805df8      0x180 /OPT/altera/12.1/nios2eds/bin/gnu/H-i686-pc-linux-gnu/bin/../lib/gcc/nios2-elf/4.1.2/../../../../nios2-elf/lib/libc.a(lib_a-fwalk.o)
                0x00805df8                _fwalk_reent
                0x00805ec0                _fwalk
 .text          0x00805f78       0x74 /OPT/altera/12.1/nios2eds/bin/gnu/H-i686-pc-linux-gnu/bin/../lib/gcc/nios2-elf/4.1.2/../../../../nios2-elf/lib/libc.a(lib_a-gettimeofdayr.o)
                0x00805f78                _gettimeofday_r
 .text          0x00805fec        0xc /OPT/altera/12.1/nios2eds/bin/gnu/H-i686-pc-linux-gnu/bin/../lib/gcc/nios2-elf/4.1.2/../../../../nios2-elf/lib/libc.a(lib_a-gettzinfo.o)
                0x00805fec                __gettzinfo
 .text          0x00805ff8        0x0 /OPT/altera/12.1/nios2eds/bin/gnu/H-i686-pc-linux-gnu/bin/../lib/gcc/nios2-elf/4.1.2/../../../../nios2-elf/lib/libc.a(lib_a-impure.o)
 .text          0x00805ff8        0x0 /OPT/altera/12.1/nios2eds/bin/gnu/H-i686-pc-linux-gnu/bin/../lib/gcc/nios2-elf/4.1.2/../../../../nios2-elf/lib/libc.a(lib_a-int_errno.o)
 .text          0x00805ff8       0xc4 /OPT/altera/12.1/nios2eds/bin/gnu/H-i686-pc-linux-gnu/bin/../lib/gcc/nios2-elf/4.1.2/../../../../nios2-elf/lib/libc.a(lib_a-locale.o)
                0x00805ff8                __locale_charset
                0x00806000                _localeconv_r
                0x0080600c                localeconv
                0x0080601c                _setlocale_r
                0x008060a0                setlocale
 .text          0x008060bc      0x194 /OPT/altera/12.1/nios2eds/bin/gnu/H-i686-pc-linux-gnu/bin/../lib/gcc/nios2-elf/4.1.2/../../../../nios2-elf/lib/libc.a(lib_a-makebuf.o)
                0x008060bc                __smakebuf_r
 .text          0x00806250       0xe4 /OPT/altera/12.1/nios2eds/bin/gnu/H-i686-pc-linux-gnu/bin/../lib/gcc/nios2-elf/4.1.2/../../../../nios2-elf/lib/libc.a(lib_a-memchr.o)
                0x00806250                memchr
 .text          0x00806334       0xa0 /OPT/altera/12.1/nios2eds/bin/gnu/H-i686-pc-linux-gnu/bin/../lib/gcc/nios2-elf/4.1.2/../../../../nios2-elf/lib/libc.a(lib_a-memcpy.o)
                0x00806334                memcpy
 .text          0x008063d4       0xe0 /OPT/altera/12.1/nios2eds/bin/gnu/H-i686-pc-linux-gnu/bin/../lib/gcc/nios2-elf/4.1.2/../../../../nios2-elf/lib/libc.a(lib_a-memmove.o)
                0x008063d4                memmove
 .text          0x008064b4       0x98 /OPT/altera/12.1/nios2eds/bin/gnu/H-i686-pc-linux-gnu/bin/../lib/gcc/nios2-elf/4.1.2/../../../../nios2-elf/lib/libc.a(lib_a-memset.o)
                0x008064b4                memset
 .text          0x0080654c      0xff4 /OPT/altera/12.1/nios2eds/bin/gnu/H-i686-pc-linux-gnu/bin/../lib/gcc/nios2-elf/4.1.2/../../../../nios2-elf/lib/libc.a(lib_a-mprec.o)
                0x0080654c                _Bfree
                0x00806574                __hi0bits
                0x008065e4                __lo0bits
                0x008066a8                __mcmp
                0x00806708                __ulp
                0x00806788                __b2d
                0x008068a8                __ratio
                0x00806958                _mprec_log10
                0x008069ec                __copybits
                0x00806a44                __any_on
                0x00806acc                _Balloc
                0x00806b88                __d2b
                0x00806d04                __mdiff
                0x00806e90                __lshift
                0x00806fdc                __multiply
                0x008071c4                __i2b
                0x00807200                __multadd
                0x00807300                __pow5mult
                0x00807420                __s2b
 .text          0x00807540      0x5f4 /OPT/altera/12.1/nios2eds/bin/gnu/H-i686-pc-linux-gnu/bin/../lib/gcc/nios2-elf/4.1.2/../../../../nios2-elf/lib/libc.a(lib_a-reallocr.o)
                0x00807540                _realloc_r
 .text          0x00807b34       0x40 /OPT/altera/12.1/nios2eds/bin/gnu/H-i686-pc-linux-gnu/bin/../lib/gcc/nios2-elf/4.1.2/../../../../nios2-elf/lib/libc.a(lib_a-s_isinfd.o)
                0x00807b34                __isinfd
 .text          0x00807b74       0x30 /OPT/altera/12.1/nios2eds/bin/gnu/H-i686-pc-linux-gnu/bin/../lib/gcc/nios2-elf/4.1.2/../../../../nios2-elf/lib/libc.a(lib_a-s_isnand.o)
                0x00807b74                __isnand
 .text          0x00807ba4       0xd4 /OPT/altera/12.1/nios2eds/bin/gnu/H-i686-pc-linux-gnu/bin/../lib/gcc/nios2-elf/4.1.2/../../../../nios2-elf/lib/libc.a(lib_a-sprintf.o)
                0x00807ba4                sprintf
                0x00807c18                _sprintf_r
 .text          0x00807c78      0x14c /OPT/altera/12.1/nios2eds/bin/gnu/H-i686-pc-linux-gnu/bin/../lib/gcc/nios2-elf/4.1.2/../../../../nios2-elf/lib/libc.a(lib_a-stdio.o)
                0x00807c78                __sclose
                0x00807c80                __sseek
                0x00807ce8                __swrite
                0x00807d64                __sread
 .text          0x00807dc4       0xbc /OPT/altera/12.1/nios2eds/bin/gnu/H-i686-pc-linux-gnu/bin/../lib/gcc/nios2-elf/4.1.2/../../../../nios2-elf/lib/libc.a(lib_a-strcmp.o)
                0x00807dc4                strcmp
 .text          0x00807e80       0x78 /OPT/altera/12.1/nios2eds/bin/gnu/H-i686-pc-linux-gnu/bin/../lib/gcc/nios2-elf/4.1.2/../../../../nios2-elf/lib/libc.a(lib_a-writer.o)
                0x00807e80                _write_r
 .text          0x00807ef8       0xb4 /OPT/altera/12.1/nios2eds/bin/gnu/H-i686-pc-linux-gnu/bin/../lib/gcc/nios2-elf/4.1.2/../../../../nios2-elf/lib/libc.a(lib_a-callocr.o)
                0x00807ef8                _calloc_r
 .text          0x00807fac       0x70 /OPT/altera/12.1/nios2eds/bin/gnu/H-i686-pc-linux-gnu/bin/../lib/gcc/nios2-elf/4.1.2/../../../../nios2-elf/lib/libc.a(lib_a-closer.o)
                0x00807fac                _close_r
 .text          0x0080801c      0x124 /OPT/altera/12.1/nios2eds/bin/gnu/H-i686-pc-linux-gnu/bin/../lib/gcc/nios2-elf/4.1.2/../../../../nios2-elf/lib/libc.a(lib_a-fclose.o)
                0x0080801c                _fclose_r
                0x0080812c                fclose
 .text          0x00808140       0x74 /OPT/altera/12.1/nios2eds/bin/gnu/H-i686-pc-linux-gnu/bin/../lib/gcc/nios2-elf/4.1.2/../../../../nios2-elf/lib/libc.a(lib_a-fstatr.o)
                0x00808140                _fstat_r
 .text          0x008081b4       0x70 /OPT/altera/12.1/nios2eds/bin/gnu/H-i686-pc-linux-gnu/bin/../lib/gcc/nios2-elf/4.1.2/../../../../nios2-elf/lib/libc.a(lib_a-isattyr.o)
                0x008081b4                _isatty_r
 .text          0x00808224       0x78 /OPT/altera/12.1/nios2eds/bin/gnu/H-i686-pc-linux-gnu/bin/../lib/gcc/nios2-elf/4.1.2/../../../../nios2-elf/lib/libc.a(lib_a-lseekr.o)
                0x00808224                _lseek_r
 .text          0x0080829c       0x78 /OPT/altera/12.1/nios2eds/bin/gnu/H-i686-pc-linux-gnu/bin/../lib/gcc/nios2-elf/4.1.2/../../../../nios2-elf/lib/libc.a(lib_a-readr.o)
                0x0080829c                _read_r
 .text          0x00808314      0x5dc /OPT/altera/12.1/nios2eds/bin/gnu/H-i686-pc-linux-gnu/bin/../lib/gcc/nios2-elf/4.1.2/libgcc.a(_udivdi3.o)
                0x00808314                __udivdi3
 .text          0x008088f0      0x5b0 /OPT/altera/12.1/nios2eds/bin/gnu/H-i686-pc-linux-gnu/bin/../lib/gcc/nios2-elf/4.1.2/libgcc.a(_umoddi3.o)
                0x008088f0                __umoddi3
 .text          0x00808ea0      0x504 /OPT/altera/12.1/nios2eds/bin/gnu/H-i686-pc-linux-gnu/bin/../lib/gcc/nios2-elf/4.1.2/libgcc.a(_addsub_df.o)
                0x008092b0                __subdf3
                0x00809330                __adddf3
 .text          0x008093a4      0x3c4 /OPT/altera/12.1/nios2eds/bin/gnu/H-i686-pc-linux-gnu/bin/../lib/gcc/nios2-elf/4.1.2/libgcc.a(_mul_df.o)
                0x008093a4                __muldf3
 .text          0x00809768      0x258 /OPT/altera/12.1/nios2eds/bin/gnu/H-i686-pc-linux-gnu/bin/../lib/gcc/nios2-elf/4.1.2/libgcc.a(_div_df.o)
                0x00809768                __divdf3
 .text          0x008099c0       0x88 /OPT/altera/12.1/nios2eds/bin/gnu/H-i686-pc-linux-gnu/bin/../lib/gcc/nios2-elf/4.1.2/libgcc.a(_eq_df.o)
                0x008099c0                __eqdf2
 .text          0x00809a48       0x88 /OPT/altera/12.1/nios2eds/bin/gnu/H-i686-pc-linux-gnu/bin/../lib/gcc/nios2-elf/4.1.2/libgcc.a(_ne_df.o)
                0x00809a48                __nedf2
 .text          0x00809ad0       0x88 /OPT/altera/12.1/nios2eds/bin/gnu/H-i686-pc-linux-gnu/bin/../lib/gcc/nios2-elf/4.1.2/libgcc.a(_gt_df.o)
                0x00809ad0                __gtdf2
 .text          0x00809b58       0x88 /OPT/altera/12.1/nios2eds/bin/gnu/H-i686-pc-linux-gnu/bin/../lib/gcc/nios2-elf/4.1.2/libgcc.a(_ge_df.o)
                0x00809b58                __gedf2
 .text          0x00809be0       0x88 /OPT/altera/12.1/nios2eds/bin/gnu/H-i686-pc-linux-gnu/bin/../lib/gcc/nios2-elf/4.1.2/libgcc.a(_lt_df.o)
                0x00809be0                __ltdf2
 .text          0x00809c68       0xf8 /OPT/altera/12.1/nios2eds/bin/gnu/H-i686-pc-linux-gnu/bin/../lib/gcc/nios2-elf/4.1.2/libgcc.a(_si_to_df.o)
                0x00809c68                __floatsidf
 .text          0x00809d60       0xd8 /OPT/altera/12.1/nios2eds/bin/gnu/H-i686-pc-linux-gnu/bin/../lib/gcc/nios2-elf/4.1.2/libgcc.a(_df_to_si.o)
                0x00809d60                __fixdfsi
 .text          0x00809e38        0x0 /OPT/altera/12.1/nios2eds/bin/gnu/H-i686-pc-linux-gnu/bin/../lib/gcc/nios2-elf/4.1.2/libgcc.a(_thenan_df.o)
 .text          0x00809e38      0x194 /OPT/altera/12.1/nios2eds/bin/gnu/H-i686-pc-linux-gnu/bin/../lib/gcc/nios2-elf/4.1.2/libgcc.a(_usi_to_df.o)
                0x00809e38                __floatunsidf
 .text          0x00809fcc      0x14c /OPT/altera/12.1/nios2eds/bin/gnu/H-i686-pc-linux-gnu/bin/../lib/gcc/nios2-elf/4.1.2/libgcc.a(lib2-divmod.o)
                0x0080a048                __divsi3
                0x0080a0a8                __modsi3
                0x0080a108                __udivsi3
                0x0080a110                __umodsi3
 .text          0x0080a118       0x98 /OPT/altera/12.1/nios2eds/bin/gnu/H-i686-pc-linux-gnu/bin/../lib/gcc/nios2-elf/4.1.2/libgcc.a(_muldi3.o)
                0x0080a118                __muldi3
 .text          0x0080a1b0        0x0 /OPT/altera/12.1/nios2eds/bin/gnu/H-i686-pc-linux-gnu/bin/../lib/gcc/nios2-elf/4.1.2/libgcc.a(_clz.o)
 .text          0x0080a1b0       0x80 /OPT/altera/12.1/nios2eds/bin/gnu/H-i686-pc-linux-gnu/bin/../lib/gcc/nios2-elf/4.1.2/libgcc.a(_clzsi2.o)
                0x0080a1b0                __clzsi2
 .text          0x0080a230      0x314 /OPT/altera/12.1/nios2eds/bin/gnu/H-i686-pc-linux-gnu/bin/../lib/gcc/nios2-elf/4.1.2/libgcc.a(_pack_df.o)
                0x0080a230                __pack_d
 .text          0x0080a544      0x138 /OPT/altera/12.1/nios2eds/bin/gnu/H-i686-pc-linux-gnu/bin/../lib/gcc/nios2-elf/4.1.2/libgcc.a(_unpack_df.o)
                0x0080a544                __unpack_d
 .text          0x0080a67c       0xc8 /OPT/altera/12.1/nios2eds/bin/gnu/H-i686-pc-linux-gnu/bin/../lib/gcc/nios2-elf/4.1.2/libgcc.a(_fpcmp_parts_df.o)
                0x0080a67c                __fpcmp_parts_d
 .text          0x0080a744      0x15c ../vga_bsp//libucosii_bsp.a(alt_close.o)
                0x0080a744                close
 .text          0x0080a8a0       0x2c ../vga_bsp//libucosii_bsp.a(alt_dev.o)
 .text          0x0080a8cc        0x0 ../vga_bsp//libucosii_bsp.a(alt_errno.o)
 .text          0x0080a8cc      0x134 ../vga_bsp//libucosii_bsp.a(alt_fstat.o)
                0x0080a8cc                fstat
 .text          0x0080aa00      0x21c ../vga_bsp//libucosii_bsp.a(alt_gettod.o)
                0x0080aa00                gettimeofday
 .text          0x0080ac1c      0x120 ../vga_bsp//libucosii_bsp.a(alt_isatty.o)
                0x0080ac1c                isatty
 .text          0x0080ad3c       0xec ../vga_bsp//libucosii_bsp.a(alt_load.o)
                0x0080ad3c                alt_load
 .text          0x0080ae28      0x150 ../vga_bsp//libucosii_bsp.a(alt_lseek.o)
                0x0080ae28                lseek
 .text          0x0080af78       0xc8 ../vga_bsp//libucosii_bsp.a(alt_main.o)
                0x0080af78                alt_main
 .text          0x0080b040      0x180 ../vga_bsp//libucosii_bsp.a(alt_read.o)
                0x0080b040                read
 .text          0x0080b1c0       0x60 ../vga_bsp//libucosii_bsp.a(alt_release_fd.o)
                0x0080b1c0                alt_release_fd
 .text          0x0080b220       0xbc ../vga_bsp//libucosii_bsp.a(alt_sbrk.o)
                0x0080b220                sbrk
 .text          0x0080b2dc      0x1a8 ../vga_bsp//libucosii_bsp.a(alt_tick.o)
                0x0080b2dc                alt_alarm_stop
                0x0080b374                alt_tick
 .text          0x0080b484      0x180 ../vga_bsp//libucosii_bsp.a(alt_write.o)
                0x0080b484                write
 .text          0x0080b604      0x108 ../vga_bsp//libucosii_bsp.a(alt_env_lock.o)
                0x0080b604                __env_lock
                0x0080b6b0                __env_unlock
 .text          0x0080b70c      0x1d8 ../vga_bsp//libucosii_bsp.a(alt_malloc_lock.o)
                0x0080b70c                __malloc_lock
                0x0080b814                __malloc_unlock
 .text          0x0080b8e4     0x2128 ../vga_bsp//libucosii_bsp.a(os_core.o)
                0x0080b8e4                OSEventNameGet
                0x0080ba14                OSEventNameSet
                0x0080bb58                OSEventPendMulti
                0x0080c20c                OSInit
                0x0080c260                OSIntEnter
                0x0080c2dc                OSIntExit
                0x0080c3dc                OSSchedLock
                0x0080c468                OSSchedUnlock
                0x0080c54c                OSStart
                0x0080c5bc                OSStatInit
                0x0080c668                OSTimeTick
                0x0080c8a8                OSVersion
                0x0080c8c8                OS_Dummy
                0x0080c8e4                OS_EventTaskRdy
                0x0080ca78                OS_EventTaskWait
                0x0080cb88                OS_EventTaskWaitMulti
                0x0080ccdc                OS_EventTaskRemove
                0x0080cd94                OS_EventTaskRemoveMulti
                0x0080ce98                OS_EventWaitListInit
                0x0080d264                OS_MemClr
                0x0080d2b8                OS_MemCopy
                0x0080d324                OS_Sched
                0x0080d468                OS_StrCopy
                0x0080d4e8                OS_StrLen
                0x0080d540                OS_TaskIdle
                0x0080d59c                OS_TaskStat
                0x0080d664                OS_TaskStatStkChk
                0x0080d72c                OS_TCBInit
 .text          0x0080da0c      0x18c ../vga_bsp//libucosii_bsp.a(os_dbg.o)
                0x0080da0c                OSDebugInit
 .text          0x0080db98     0x193c ../vga_bsp//libucosii_bsp.a(os_flag.o)
                0x0080db98                OSFlagAccept
                0x0080decc                OSFlagCreate
                0x0080e008                OSFlagDel
                0x0080e2b0                OSFlagNameGet
                0x0080e3f4                OSFlagNameSet
                0x0080e548                OSFlagPend
                0x0080eb8c                OSFlagPendGetFlagsRdy
                0x0080ebf4                OSFlagPost
                0x0080ef9c                OSFlagQuery
                0x0080f234                OS_FlagInit
                0x0080f428                OS_FlagUnlink
 .text          0x0080f4d4      0x808 ../vga_bsp//libucosii_bsp.a(os_mem.o)
                0x0080f4d4                OSMemCreate
                0x0080f6f0                OSMemGet
                0x0080f7f4                OSMemNameGet
                0x0080f900                OSMemNameSet
                0x0080fa20                OSMemPut
                0x0080fb10                OSMemQuery
                0x0080fc0c                OS_MemInit
 .text          0x0080fcdc     0x1334 ../vga_bsp//libucosii_bsp.a(os_q.o)
                0x0080fcdc                OSQAccept
                0x0080fe30                OSQCreate
                0x00810044                OSQDel
                0x00810344                OSQFlush
                0x0081040c                OSQPend
                0x0081072c                OSQPendAbort
                0x008108a8                OSQPost
                0x00810a28                OSQPostFront
                0x00810bb0                OSQPostOpt
                0x00810de4                OSQQuery
                0x00810f64                OS_QInit
 .text          0x00811010      0xbc8 ../vga_bsp//libucosii_bsp.a(os_sem.o)
                0x00811010                OSSemAccept
                0x008110d0                OSSemCreate
                0x008111e4                OSSemDel
                0x00811484                OSSemPend
                0x00811700                OSSemPendAbort
                0x0081187c                OSSemPost
                0x008119a4                OSSemQuery
                0x00811ad4                OSSemSet
 .text          0x00811bd8     0x1a40 ../vga_bsp//libucosii_bsp.a(os_task.o)
                0x00811bd8                OSTaskChangePrio
                0x0081214c                OSTaskCreate
                0x00812320                OSTaskCreateExt
                0x00812520                OSTaskDel
                0x0081292c                OSTaskDelReq
                0x00812a9c                OSTaskNameGet
                0x00812c54                OSTaskNameSet
                0x00812e18                OSTaskResume
                0x00813030                OSTaskStkChk
                0x0081322c                OSTaskSuspend
                0x00813458                OSTaskQuery
                0x0081359c                OS_TaskStkClr
 .text          0x00813618      0x598 ../vga_bsp//libucosii_bsp.a(os_time.o)
                0x00813618                OSTimeDly
                0x00813764                OSTimeDlyHMSM
                0x008138d8                OSTimeDlyResume
                0x00813ae8                OSTimeGet
                0x00813b4c                OSTimeSet
 .text          0x00813bb0      0x2e4 ../vga_bsp//libucosii_bsp.a(alt_sys_init.o)
                0x00813bb0                alt_irq_init
                0x00813be4                alt_sys_init
 .text          0x00813e94      0x148 ../vga_bsp//libucosii_bsp.a(altera_avalon_jtag_uart_fd.o)
                0x00813e94                altera_avalon_jtag_uart_read_fd
                0x00813eec                altera_avalon_jtag_uart_write_fd
                0x00813f44                altera_avalon_jtag_uart_close_fd
                0x00813f8c                altera_avalon_jtag_uart_ioctl_fd
 .text          0x00813fdc      0x584 ../vga_bsp//libucosii_bsp.a(altera_avalon_jtag_uart_init.o)
                0x00813fdc                altera_avalon_jtag_uart_init
                0x008144ec                altera_avalon_jtag_uart_close
 .text          0x00814560       0xf4 ../vga_bsp//libucosii_bsp.a(altera_avalon_jtag_uart_ioctl.o)
                0x00814560                altera_avalon_jtag_uart_ioctl
 .text          0x00814654      0x2c0 ../vga_bsp//libucosii_bsp.a(altera_avalon_jtag_uart_read.o)
                0x00814654                altera_avalon_jtag_uart_read
 .text          0x00814914      0x2dc ../vga_bsp//libucosii_bsp.a(altera_avalon_jtag_uart_write.o)
                0x00814914                altera_avalon_jtag_uart_write
 .text          0x00814bf0      0x100 ../vga_bsp//libucosii_bsp.a(altera_avalon_timer_sc.o)
                0x00814c60                alt_avalon_timer_sc_init
 .text          0x00814cf0      0x530 ../vga_bsp//libucosii_bsp.a(altera_up_avalon_character_lcd.o)
                0x00814cf0                get_DDRAM_addr
                0x00814d6c                alt_up_character_lcd_send_cmd
                0x00814da0                alt_up_character_lcd_init
                0x00814dd4                alt_up_character_lcd_open_dev
                0x00814e14                alt_up_character_lcd_write
                0x00814e8c                alt_up_character_lcd_string
                0x00814f04                alt_up_character_lcd_write_fd
                0x00814f50                alt_up_character_lcd_set_cursor_pos
                0x00814fc8                alt_up_character_lcd_shift_cursor
                0x00815078                alt_up_character_lcd_shift_display
                0x00815128                alt_up_character_lcd_erase_pos
                0x008151b8                alt_up_character_lcd_cursor_off
                0x008151ec                alt_up_character_lcd_cursor_blink_on
 .text          0x00815220     0x156c ../vga_bsp//libucosii_bsp.a(altera_up_avalon_video_pixel_buffer_dma.o)
                0x00815220                alt_up_pixel_buffer_dma_open_dev
                0x00815260                alt_up_pixel_buffer_dma_draw
                0x00815400                alt_up_pixel_buffer_dma_change_back_buffer_address
                0x00815458                alt_up_pixel_buffer_dma_swap_buffers
                0x008154b0                alt_up_pixel_buffer_dma_check_swap_buffers_status
                0x008154e4                alt_up_pixel_buffer_dma_clear_screen
                0x00815648                alt_up_pixel_buffer_dma_draw_box
                0x00815b3c                alt_up_pixel_buffer_dma_draw_hline
                0x00815e8c                alt_up_pixel_buffer_dma_draw_vline
                0x0081625c                alt_up_pixel_buffer_dma_draw_rectangle
                0x00816320                helper_plot_pixel
                0x008163f0                alt_up_pixel_buffer_dma_draw_line
 .text          0x0081678c     0x4428 ../vga_bsp//libucosii_bsp.a(altera_up_sd_card_avalon_interface.o)
                0x0081678c                Write_Sector_Data
                0x00816854                Save_Modified_Sector
                0x008168a4                Read_Sector_Data
                0x008169a0                get_cluster_flag
                0x00816a58                mark_cluster
                0x00816b3c                Check_for_Master_Boot_Record
                0x00816cec                Read_File_Record_At_Offset
                0x00816f70                Write_File_Record_At_Offset
                0x00817228                Check_for_DOS_FAT
                0x00817870                Look_for_FAT16
                0x00817968                filename_to_upper_case
                0x00817a38                check_file_name_for_FAT16_compliance
                0x00817cc8                get_dir_divider_location
                0x00817d88                match_file_record_to_name_ext
                0x00818074                get_home_directory_cluster_for_file
                0x00818588                find_file_in_directory
                0x008189ec                find_first_empty_cluster
                0x00818b90                find_first_empty_record_in_a_subdirectory
                0x00818ddc                find_first_empty_record_in_root_directory
                0x00818f08                convert_filename_to_name_extension
                0x008190c0                create_file
                0x00819394                copy_file_record_name_to_string
                0x008194e8                alt_up_sd_card_open_dev
                0x008195ac                alt_up_sd_card_is_Present
                0x00819674                alt_up_sd_card_is_FAT16
                0x008196e8                alt_up_sd_card_find_first
                0x008197bc                alt_up_sd_card_find_next
                0x00819b6c                alt_up_sd_card_fopen
                0x00819f14                alt_up_sd_card_set_attributes
                0x00819fa4                alt_up_sd_card_get_attributes
                0x0081a030                alt_up_sd_card_read
                0x0081a3c4                alt_up_sd_card_write
                0x0081a9e8                alt_up_sd_card_fclose
 .text          0x0081abb4      0x154 ../vga_bsp//libucosii_bsp.a(alt_alarm_start.o)
                0x0081abb4                alt_alarm_start
 .text          0x0081ad08       0x44 ../vga_bsp//libucosii_bsp.a(alt_dcache_flush_all.o)
                0x0081ad08                alt_dcache_flush_all
 .text          0x0081ad4c      0x114 ../vga_bsp//libucosii_bsp.a(alt_dev_llist_insert.o)
                0x0081ad4c                alt_dev_llist_insert
 .text          0x0081ae60       0x64 ../vga_bsp//libucosii_bsp.a(alt_do_ctors.o)
                0x0081ae60                _do_ctors
 .text          0x0081aec4       0x64 ../vga_bsp//libucosii_bsp.a(alt_do_dtors.o)
                0x0081aec4                _do_dtors
 .text          0x0081af28       0x94 ../vga_bsp//libucosii_bsp.a(alt_find_dev.o)
                0x0081af28                alt_find_dev
 .text          0x0081afbc       0x30 ../vga_bsp//libucosii_bsp.a(alt_icache_flush_all.o)
                0x0081afbc                alt_icache_flush_all
 .text          0x0081afec      0x1d4 ../vga_bsp//libucosii_bsp.a(alt_iic.o)
                0x0081afec                alt_ic_isr_register
                0x0081b03c                alt_ic_irq_enable
                0x0081b0d8                alt_ic_irq_disable
                0x0081b178                alt_ic_irq_enabled
 .text          0x0081b1c0       0xf8 ../vga_bsp//libucosii_bsp.a(alt_iic_isr_register.o)
                0x0081b1c0                alt_iic_isr_register
 .text          0x0081b2b8      0x13c ../vga_bsp//libucosii_bsp.a(alt_io_redirect.o)
                0x0081b37c                alt_io_redirect
 .text          0x0081b3f4        0x0 ../vga_bsp//libucosii_bsp.a(alt_irq_entry.o)
 .text          0x0081b3f4        0x0 ../vga_bsp//libucosii_bsp.a(alt_irq_handler.o)
 .text          0x0081b3f4        0x0 ../vga_bsp//libucosii_bsp.a(alt_irq_vars.o)
 .text          0x0081b3f4      0x2c4 ../vga_bsp//libucosii_bsp.a(alt_open.o)
                0x0081b4d0                open
 .text          0x0081b6b8       0x20 ../vga_bsp//libucosii_bsp.a(altera_nios2_qsys_irq.o)
                0x0081b6b8                altera_nios2_qsys_irq_init
 .text          0x0081b6d8       0xd0 ../vga_bsp//libucosii_bsp.a(os_cpu_a.o)
                0x0081b6d8                OSCtxSw
                0x0081b6d8                OSIntCtxSw
                0x0081b764                OSStartHighRdy
                0x0081b784                OSStartTsk
 .text          0x0081b7a8      0x418 ../vga_bsp//libucosii_bsp.a(os_cpu_c.o)
                0x0081b7a8                OSTaskStkInit
                0x0081bab8                OSTaskCreateHook
                0x0081bad8                OSTaskDelHook
                0x0081baf8                OSTaskSwHook
                0x0081bb14                OSTaskStatHook
                0x0081bb30                OSTimeTickHook
                0x0081bb4c                OSInitHookBegin
                0x0081bb68                OSInitHookEnd
                0x0081bb84                OSTaskIdleHook
                0x0081bba0                OSTCBInitHook
 .text          0x0081bbc0        0x0 ../vga_bsp//libucosii_bsp.a(alt_exception_entry.o)
 .text          0x0081bbc0      0x120 ../vga_bsp//libucosii_bsp.a(alt_find_file.o)
                0x0081bbc0                alt_find_file
 .text          0x0081bce0       0xf4 ../vga_bsp//libucosii_bsp.a(alt_get_fd.o)
                0x0081bce0                alt_get_fd
 .text          0x0081bdd4       0x90 ../vga_bsp//libucosii_bsp.a(alt_icache_flush.o)
                0x0081bdd4                alt_icache_flush
 .text          0x0081be64       0x14 /OPT/altera/12.1/nios2eds/bin/gnu/H-i686-pc-linux-gnu/bin/../lib/gcc/nios2-elf/4.1.2/../../../../nios2-elf/lib/libc.a(lib_a-atexit.o)
                0x0081be64                atexit
 .text          0x0081be78       0x38 /OPT/altera/12.1/nios2eds/bin/gnu/H-i686-pc-linux-gnu/bin/../lib/gcc/nios2-elf/4.1.2/../../../../nios2-elf/lib/libc.a(lib_a-exit.o)
                0x0081be78                exit
 .text          0x0081beb0       0x74 /OPT/altera/12.1/nios2eds/bin/gnu/H-i686-pc-linux-gnu/bin/../lib/gcc/nios2-elf/4.1.2/../../../../nios2-elf/lib/libc.a(lib_a-memcmp.o)
                0x0081beb0                memcmp
 .text          0x0081bf24      0x134 /OPT/altera/12.1/nios2eds/bin/gnu/H-i686-pc-linux-gnu/bin/../lib/gcc/nios2-elf/4.1.2/../../../../nios2-elf/lib/libc.a(lib_a-__atexit.o)
                0x0081bf24                __register_exitproc
 .text          0x0081c058      0x1b4 /OPT/altera/12.1/nios2eds/bin/gnu/H-i686-pc-linux-gnu/bin/../lib/gcc/nios2-elf/4.1.2/../../../../nios2-elf/lib/libc.a(lib_a-__call_atexit.o)
                0x0081c05c                __call_exitprocs
 .text          0x0081c20c       0x6c ../vga_bsp//libucosii_bsp.a(alt_exit.o)
                0x0081c24c                _exit
 *(.gnu.warning.*)
 *(.fini)
                0x0081c278                PROVIDE (__etext, ABSOLUTE (.))
                0x0081c278                PROVIDE (_etext, ABSOLUTE (.))
                0x0081c278                PROVIDE (etext, ABSOLUTE (.))
 *(.eh_frame_hdr)
                0x0081c278                . = ALIGN (0x4)
                0x0081c278                PROVIDE (__preinit_array_start, ABSOLUTE (.))
 *(.preinit_array)
                0x0081c278                PROVIDE (__preinit_array_end, ABSOLUTE (.))
                0x0081c278                PROVIDE (__init_array_start, ABSOLUTE (.))
 *(.init_array)
                0x0081c278                PROVIDE (__init_array_end, ABSOLUTE (.))
                0x0081c278                PROVIDE (__fini_array_start, ABSOLUTE (.))
 *(.fini_array)
                0x0081c278                PROVIDE (__fini_array_end, ABSOLUTE (.))
 *(.eh_frame)
 *(.gcc_except_table)
 *(.dynamic)
                0x0081c278                PROVIDE (__CTOR_LIST__, ABSOLUTE (.))
 *(.ctors)
 *(SORT(.ctors.*))
 .ctors.65535   0x0081c278        0x4 /OPT/altera/12.1/nios2eds/bin/gnu/H-i686-pc-linux-gnu/bin/../lib/gcc/nios2-elf/4.1.2/../../../../nios2-elf/lib/libc.a(lib_a-__call_atexit.o)
                0x0081c27c                PROVIDE (__CTOR_END__, ABSOLUTE (.))
                0x0081c27c                PROVIDE (__DTOR_LIST__, ABSOLUTE (.))
 *(.dtors)
 *(SORT(.dtors.*))
                0x0081c27c                PROVIDE (__DTOR_END__, ABSOLUTE (.))
 *(.jcr)
                0x0081c27c                . = ALIGN (0x4)

.rodata         0x0081c27c      0x6cc
                0x0081c27c                PROVIDE (__ram_rodata_start, ABSOLUTE (.))
                0x0081c27c                . = ALIGN (0x4)
 *(.rodata .rodata.* .gnu.linkonce.r.*)
 .rodata        0x0081c27c      0x140 obj/default/hello_ucosii.o
 .rodata        0x0081c3bc       0x60 /OPT/altera/12.1/nios2eds/bin/gnu/H-i686-pc-linux-gnu/bin/../lib/gcc/nios2-elf/4.1.2/../../../../nios2-elf/lib/libc.a(lib_a-mktm_r.o)
 .rodata.str1.4
                0x0081c41c        0x2 /OPT/altera/12.1/nios2eds/bin/gnu/H-i686-pc-linux-gnu/bin/../lib/gcc/nios2-elf/4.1.2/../../../../nios2-elf/lib/libc.a(lib_a-puts.o)
                                  0x4 (size before relaxing)
 *fill*         0x0081c41e        0x2 00
 .rodata.str1.4
                0x0081c420        0x4 /OPT/altera/12.1/nios2eds/bin/gnu/H-i686-pc-linux-gnu/bin/../lib/gcc/nios2-elf/4.1.2/../../../../nios2-elf/lib/libc.a(lib_a-tzvars.o)
 .rodata.str1.4
                0x0081c424       0x5e /OPT/altera/12.1/nios2eds/bin/gnu/H-i686-pc-linux-gnu/bin/../lib/gcc/nios2-elf/4.1.2/../../../../nios2-elf/lib/libc.a(lib_a-vfprintf.o)
                                 0x60 (size before relaxing)
 .rodata        0x0081c482       0x20 /OPT/altera/12.1/nios2eds/bin/gnu/H-i686-pc-linux-gnu/bin/../lib/gcc/nios2-elf/4.1.2/../../../../nios2-elf/lib/libc.a(lib_a-vfprintf.o)
 *fill*         0x0081c4a2        0x2 00
 .rodata.str1.4
                0x0081c4a4       0x20 /OPT/altera/12.1/nios2eds/bin/gnu/H-i686-pc-linux-gnu/bin/../lib/gcc/nios2-elf/4.1.2/../../../../nios2-elf/lib/libc.a(lib_a-asctime_r.o)
 .rodata        0x0081c4c4       0x39 /OPT/altera/12.1/nios2eds/bin/gnu/H-i686-pc-linux-gnu/bin/../lib/gcc/nios2-elf/4.1.2/../../../../nios2-elf/lib/libc.a(lib_a-asctime_r.o)
 *fill*         0x0081c4fd        0x3 00
 .rodata.str1.4
                0x0081c500       0x10 /OPT/altera/12.1/nios2eds/bin/gnu/H-i686-pc-linux-gnu/bin/../lib/gcc/nios2-elf/4.1.2/../../../../nios2-elf/lib/libc.a(lib_a-dtoa.o)
                                 0x14 (size before relaxing)
 .rodata.str1.4
                0x0081c510        0x2 /OPT/altera/12.1/nios2eds/bin/gnu/H-i686-pc-linux-gnu/bin/../lib/gcc/nios2-elf/4.1.2/../../../../nios2-elf/lib/libc.a(lib_a-impure.o)
                                  0x4 (size before relaxing)
 *fill*         0x0081c512        0x2 00
 .rodata.str1.4
                0x0081c514       0x10 /OPT/altera/12.1/nios2eds/bin/gnu/H-i686-pc-linux-gnu/bin/../lib/gcc/nios2-elf/4.1.2/../../../../nios2-elf/lib/libc.a(lib_a-locale.o)
                                 0x18 (size before relaxing)
 .rodata        0x0081c524       0x30 /OPT/altera/12.1/nios2eds/bin/gnu/H-i686-pc-linux-gnu/bin/../lib/gcc/nios2-elf/4.1.2/../../../../nios2-elf/lib/libc.a(lib_a-locale.o)
 .rodata        0x0081c554      0x124 /OPT/altera/12.1/nios2eds/bin/gnu/H-i686-pc-linux-gnu/bin/../lib/gcc/nios2-elf/4.1.2/../../../../nios2-elf/lib/libc.a(lib_a-mprec.o)
                0x0081c554                __mprec_tens
                0x0081c61c                __mprec_bigtens
                0x0081c644                __mprec_tinytens
 .rodata        0x0081c678       0x14 /OPT/altera/12.1/nios2eds/bin/gnu/H-i686-pc-linux-gnu/bin/../lib/gcc/nios2-elf/4.1.2/libgcc.a(_thenan_df.o)
                0x0081c678                __thenan_df
 .rodata        0x0081c68c      0x100 /OPT/altera/12.1/nios2eds/bin/gnu/H-i686-pc-linux-gnu/bin/../lib/gcc/nios2-elf/4.1.2/libgcc.a(_clz.o)
                0x0081c68c                __clz_tab
 .rodata        0x0081c78c        0xc ../vga_bsp//libucosii_bsp.a(alt_dev.o)
 .rodata        0x0081c798       0x14 ../vga_bsp//libucosii_bsp.a(alt_main.o)
 .rodata        0x0081c7ac      0x120 ../vga_bsp//libucosii_bsp.a(os_core.o)
                0x0081c7ac                OSUnMapTbl
 .rodata        0x0081c8cc       0x78 ../vga_bsp//libucosii_bsp.a(alt_sys_init.o)
 .rodata        0x0081c944        0x4 ../vga_bsp//libucosii_bsp.a(os_cpu_c.o)
 *(.rodata1)
                0x0081c948                . = ALIGN (0x4)
                0x0081c948                PROVIDE (__ram_rodata_end, ABSOLUTE (.))
                0x0081c27c                PROVIDE (__flash_rodata_start, LOADADDR (.rodata))

.rwdata         0x0081c948     0x1be0 load address 0x0081e528
                0x0081c948                PROVIDE (__ram_rwdata_start, ABSOLUTE (.))
                0x0081c948                . = ALIGN (0x4)
 *(.got.plt)
 *(.got)
 *(.data1)
 *(.data .data.* .gnu.linkonce.d.*)
 .data          0x0081c948        0x0 ../vga_bsp//obj/HAL/src/crt0.o
 .data          0x0081c948        0x0 obj/default/hello_ucosii.o
 .data          0x0081c948        0x0 /OPT/altera/12.1/nios2eds/bin/gnu/H-i686-pc-linux-gnu/bin/../lib/gcc/nios2-elf/4.1.2/../../../../nios2-elf/lib/libc.a(lib_a-ctime.o)
 .data          0x0081c948        0x0 /OPT/altera/12.1/nios2eds/bin/gnu/H-i686-pc-linux-gnu/bin/../lib/gcc/nios2-elf/4.1.2/../../../../nios2-elf/lib/libc.a(lib_a-lcltime.o)
 .data          0x0081c948        0x0 /OPT/altera/12.1/nios2eds/bin/gnu/H-i686-pc-linux-gnu/bin/../lib/gcc/nios2-elf/4.1.2/../../../../nios2-elf/lib/libc.a(lib_a-lcltime_r.o)
 .data          0x0081c948        0x0 /OPT/altera/12.1/nios2eds/bin/gnu/H-i686-pc-linux-gnu/bin/../lib/gcc/nios2-elf/4.1.2/../../../../nios2-elf/lib/libc.a(lib_a-malloc.o)
 .data          0x0081c948      0x408 /OPT/altera/12.1/nios2eds/bin/gnu/H-i686-pc-linux-gnu/bin/../lib/gcc/nios2-elf/4.1.2/../../../../nios2-elf/lib/libc.a(lib_a-mallocr.o)
                0x0081c948                __malloc_av_
 .data          0x0081cd50        0x0 /OPT/altera/12.1/nios2eds/bin/gnu/H-i686-pc-linux-gnu/bin/../lib/gcc/nios2-elf/4.1.2/../../../../nios2-elf/lib/libc.a(lib_a-mktm_r.o)
 .data          0x0081cd50        0x0 /OPT/altera/12.1/nios2eds/bin/gnu/H-i686-pc-linux-gnu/bin/../lib/gcc/nios2-elf/4.1.2/../../../../nios2-elf/lib/libc.a(lib_a-printf.o)
 .data          0x0081cd50        0x0 /OPT/altera/12.1/nios2eds/bin/gnu/H-i686-pc-linux-gnu/bin/../lib/gcc/nios2-elf/4.1.2/../../../../nios2-elf/lib/libc.a(lib_a-puts.o)
 .data          0x0081cd50        0x0 /OPT/altera/12.1/nios2eds/bin/gnu/H-i686-pc-linux-gnu/bin/../lib/gcc/nios2-elf/4.1.2/../../../../nios2-elf/lib/libc.a(lib_a-sbrkr.o)
 .data          0x0081cd50        0x0 /OPT/altera/12.1/nios2eds/bin/gnu/H-i686-pc-linux-gnu/bin/../lib/gcc/nios2-elf/4.1.2/../../../../nios2-elf/lib/libc.a(lib_a-strlen.o)
 .data          0x0081cd50        0x0 /OPT/altera/12.1/nios2eds/bin/gnu/H-i686-pc-linux-gnu/bin/../lib/gcc/nios2-elf/4.1.2/../../../../nios2-elf/lib/libc.a(lib_a-time.o)
 .data          0x0081cd50        0x0 /OPT/altera/12.1/nios2eds/bin/gnu/H-i686-pc-linux-gnu/bin/../lib/gcc/nios2-elf/4.1.2/../../../../nios2-elf/lib/libc.a(lib_a-tzlock.o)
 .data          0x0081cd50        0x0 /OPT/altera/12.1/nios2eds/bin/gnu/H-i686-pc-linux-gnu/bin/../lib/gcc/nios2-elf/4.1.2/../../../../nios2-elf/lib/libc.a(lib_a-tzvars.o)
 .data          0x0081cd50        0x0 /OPT/altera/12.1/nios2eds/bin/gnu/H-i686-pc-linux-gnu/bin/../lib/gcc/nios2-elf/4.1.2/../../../../nios2-elf/lib/libc.a(lib_a-vfprintf.o)
 .data          0x0081cd50        0x0 /OPT/altera/12.1/nios2eds/bin/gnu/H-i686-pc-linux-gnu/bin/../lib/gcc/nios2-elf/4.1.2/../../../../nios2-elf/lib/libc.a(lib_a-wsetup.o)
 .data          0x0081cd50        0x0 /OPT/altera/12.1/nios2eds/bin/gnu/H-i686-pc-linux-gnu/bin/../lib/gcc/nios2-elf/4.1.2/../../../../nios2-elf/lib/libc.a(lib_a-asctime.o)
 .data          0x0081cd50        0x0 /OPT/altera/12.1/nios2eds/bin/gnu/H-i686-pc-linux-gnu/bin/../lib/gcc/nios2-elf/4.1.2/../../../../nios2-elf/lib/libc.a(lib_a-asctime_r.o)
 .data          0x0081cd50        0x0 /OPT/altera/12.1/nios2eds/bin/gnu/H-i686-pc-linux-gnu/bin/../lib/gcc/nios2-elf/4.1.2/../../../../nios2-elf/lib/libc.a(lib_a-dtoa.o)
 .data          0x0081cd50        0x0 /OPT/altera/12.1/nios2eds/bin/gnu/H-i686-pc-linux-gnu/bin/../lib/gcc/nios2-elf/4.1.2/../../../../nios2-elf/lib/libc.a(lib_a-fflush.o)
 .data          0x0081cd50        0x0 /OPT/altera/12.1/nios2eds/bin/gnu/H-i686-pc-linux-gnu/bin/../lib/gcc/nios2-elf/4.1.2/../../../../nios2-elf/lib/libc.a(lib_a-findfp.o)
 .data          0x0081cd50        0x0 /OPT/altera/12.1/nios2eds/bin/gnu/H-i686-pc-linux-gnu/bin/../lib/gcc/nios2-elf/4.1.2/../../../../nios2-elf/lib/libc.a(lib_a-freer.o)
 .data          0x0081cd50        0x0 /OPT/altera/12.1/nios2eds/bin/gnu/H-i686-pc-linux-gnu/bin/../lib/gcc/nios2-elf/4.1.2/../../../../nios2-elf/lib/libc.a(lib_a-fvwrite.o)
 .data          0x0081cd50        0x0 /OPT/altera/12.1/nios2eds/bin/gnu/H-i686-pc-linux-gnu/bin/../lib/gcc/nios2-elf/4.1.2/../../../../nios2-elf/lib/libc.a(lib_a-fwalk.o)
 .data          0x0081cd50        0x0 /OPT/altera/12.1/nios2eds/bin/gnu/H-i686-pc-linux-gnu/bin/../lib/gcc/nios2-elf/4.1.2/../../../../nios2-elf/lib/libc.a(lib_a-gettimeofdayr.o)
 .data          0x0081cd50       0x40 /OPT/altera/12.1/nios2eds/bin/gnu/H-i686-pc-linux-gnu/bin/../lib/gcc/nios2-elf/4.1.2/../../../../nios2-elf/lib/libc.a(lib_a-gettzinfo.o)
 .data          0x0081cd90      0x400 /OPT/altera/12.1/nios2eds/bin/gnu/H-i686-pc-linux-gnu/bin/../lib/gcc/nios2-elf/4.1.2/../../../../nios2-elf/lib/libc.a(lib_a-impure.o)
 .data          0x0081d190        0x0 /OPT/altera/12.1/nios2eds/bin/gnu/H-i686-pc-linux-gnu/bin/../lib/gcc/nios2-elf/4.1.2/../../../../nios2-elf/lib/libc.a(lib_a-int_errno.o)
 .data          0x0081d190        0xc /OPT/altera/12.1/nios2eds/bin/gnu/H-i686-pc-linux-gnu/bin/../lib/gcc/nios2-elf/4.1.2/../../../../nios2-elf/lib/libc.a(lib_a-locale.o)
                0x0081d190                __lc_ctype
 .data          0x0081d19c        0x0 /OPT/altera/12.1/nios2eds/bin/gnu/H-i686-pc-linux-gnu/bin/../lib/gcc/nios2-elf/4.1.2/../../../../nios2-elf/lib/libc.a(lib_a-makebuf.o)
 .data          0x0081d19c        0x0 /OPT/altera/12.1/nios2eds/bin/gnu/H-i686-pc-linux-gnu/bin/../lib/gcc/nios2-elf/4.1.2/../../../../nios2-elf/lib/libc.a(lib_a-memchr.o)
 .data          0x0081d19c        0x0 /OPT/altera/12.1/nios2eds/bin/gnu/H-i686-pc-linux-gnu/bin/../lib/gcc/nios2-elf/4.1.2/../../../../nios2-elf/lib/libc.a(lib_a-memcpy.o)
 .data          0x0081d19c        0x0 /OPT/altera/12.1/nios2eds/bin/gnu/H-i686-pc-linux-gnu/bin/../lib/gcc/nios2-elf/4.1.2/../../../../nios2-elf/lib/libc.a(lib_a-memmove.o)
 .data          0x0081d19c        0x0 /OPT/altera/12.1/nios2eds/bin/gnu/H-i686-pc-linux-gnu/bin/../lib/gcc/nios2-elf/4.1.2/../../../../nios2-elf/lib/libc.a(lib_a-memset.o)
 .data          0x0081d19c        0x0 /OPT/altera/12.1/nios2eds/bin/gnu/H-i686-pc-linux-gnu/bin/../lib/gcc/nios2-elf/4.1.2/../../../../nios2-elf/lib/libc.a(lib_a-mprec.o)
 .data          0x0081d19c        0x0 /OPT/altera/12.1/nios2eds/bin/gnu/H-i686-pc-linux-gnu/bin/../lib/gcc/nios2-elf/4.1.2/../../../../nios2-elf/lib/libc.a(lib_a-reallocr.o)
 .data          0x0081d19c        0x0 /OPT/altera/12.1/nios2eds/bin/gnu/H-i686-pc-linux-gnu/bin/../lib/gcc/nios2-elf/4.1.2/../../../../nios2-elf/lib/libc.a(lib_a-s_isinfd.o)
 .data          0x0081d19c        0x0 /OPT/altera/12.1/nios2eds/bin/gnu/H-i686-pc-linux-gnu/bin/../lib/gcc/nios2-elf/4.1.2/../../../../nios2-elf/lib/libc.a(lib_a-s_isnand.o)
 .data          0x0081d19c        0x0 /OPT/altera/12.1/nios2eds/bin/gnu/H-i686-pc-linux-gnu/bin/../lib/gcc/nios2-elf/4.1.2/../../../../nios2-elf/lib/libc.a(lib_a-sprintf.o)
 .data          0x0081d19c        0x0 /OPT/altera/12.1/nios2eds/bin/gnu/H-i686-pc-linux-gnu/bin/../lib/gcc/nios2-elf/4.1.2/../../../../nios2-elf/lib/libc.a(lib_a-stdio.o)
 .data          0x0081d19c        0x0 /OPT/altera/12.1/nios2eds/bin/gnu/H-i686-pc-linux-gnu/bin/../lib/gcc/nios2-elf/4.1.2/../../../../nios2-elf/lib/libc.a(lib_a-strcmp.o)
 .data          0x0081d19c        0x0 /OPT/altera/12.1/nios2eds/bin/gnu/H-i686-pc-linux-gnu/bin/../lib/gcc/nios2-elf/4.1.2/../../../../nios2-elf/lib/libc.a(lib_a-writer.o)
 .data          0x0081d19c        0x0 /OPT/altera/12.1/nios2eds/bin/gnu/H-i686-pc-linux-gnu/bin/../lib/gcc/nios2-elf/4.1.2/../../../../nios2-elf/lib/libc.a(lib_a-callocr.o)
 .data          0x0081d19c        0x0 /OPT/altera/12.1/nios2eds/bin/gnu/H-i686-pc-linux-gnu/bin/../lib/gcc/nios2-elf/4.1.2/../../../../nios2-elf/lib/libc.a(lib_a-closer.o)
 .data          0x0081d19c        0x0 /OPT/altera/12.1/nios2eds/bin/gnu/H-i686-pc-linux-gnu/bin/../lib/gcc/nios2-elf/4.1.2/../../../../nios2-elf/lib/libc.a(lib_a-fclose.o)
 .data          0x0081d19c        0x0 /OPT/altera/12.1/nios2eds/bin/gnu/H-i686-pc-linux-gnu/bin/../lib/gcc/nios2-elf/4.1.2/../../../../nios2-elf/lib/libc.a(lib_a-fstatr.o)
 .data          0x0081d19c        0x0 /OPT/altera/12.1/nios2eds/bin/gnu/H-i686-pc-linux-gnu/bin/../lib/gcc/nios2-elf/4.1.2/../../../../nios2-elf/lib/libc.a(lib_a-isattyr.o)
 .data          0x0081d19c        0x0 /OPT/altera/12.1/nios2eds/bin/gnu/H-i686-pc-linux-gnu/bin/../lib/gcc/nios2-elf/4.1.2/../../../../nios2-elf/lib/libc.a(lib_a-lseekr.o)
 .data          0x0081d19c        0x0 /OPT/altera/12.1/nios2eds/bin/gnu/H-i686-pc-linux-gnu/bin/../lib/gcc/nios2-elf/4.1.2/../../../../nios2-elf/lib/libc.a(lib_a-readr.o)
 .data          0x0081d19c        0x0 /OPT/altera/12.1/nios2eds/bin/gnu/H-i686-pc-linux-gnu/bin/../lib/gcc/nios2-elf/4.1.2/libgcc.a(_udivdi3.o)
 .data          0x0081d19c        0x0 /OPT/altera/12.1/nios2eds/bin/gnu/H-i686-pc-linux-gnu/bin/../lib/gcc/nios2-elf/4.1.2/libgcc.a(_umoddi3.o)
 .data          0x0081d19c        0x0 /OPT/altera/12.1/nios2eds/bin/gnu/H-i686-pc-linux-gnu/bin/../lib/gcc/nios2-elf/4.1.2/libgcc.a(_addsub_df.o)
 .data          0x0081d19c        0x0 /OPT/altera/12.1/nios2eds/bin/gnu/H-i686-pc-linux-gnu/bin/../lib/gcc/nios2-elf/4.1.2/libgcc.a(_mul_df.o)
 .data          0x0081d19c        0x0 /OPT/altera/12.1/nios2eds/bin/gnu/H-i686-pc-linux-gnu/bin/../lib/gcc/nios2-elf/4.1.2/libgcc.a(_div_df.o)
 .data          0x0081d19c        0x0 /OPT/altera/12.1/nios2eds/bin/gnu/H-i686-pc-linux-gnu/bin/../lib/gcc/nios2-elf/4.1.2/libgcc.a(_eq_df.o)
 .data          0x0081d19c        0x0 /OPT/altera/12.1/nios2eds/bin/gnu/H-i686-pc-linux-gnu/bin/../lib/gcc/nios2-elf/4.1.2/libgcc.a(_ne_df.o)
 .data          0x0081d19c        0x0 /OPT/altera/12.1/nios2eds/bin/gnu/H-i686-pc-linux-gnu/bin/../lib/gcc/nios2-elf/4.1.2/libgcc.a(_gt_df.o)
 .data          0x0081d19c        0x0 /OPT/altera/12.1/nios2eds/bin/gnu/H-i686-pc-linux-gnu/bin/../lib/gcc/nios2-elf/4.1.2/libgcc.a(_ge_df.o)
 .data          0x0081d19c        0x0 /OPT/altera/12.1/nios2eds/bin/gnu/H-i686-pc-linux-gnu/bin/../lib/gcc/nios2-elf/4.1.2/libgcc.a(_lt_df.o)
 .data          0x0081d19c        0x0 /OPT/altera/12.1/nios2eds/bin/gnu/H-i686-pc-linux-gnu/bin/../lib/gcc/nios2-elf/4.1.2/libgcc.a(_si_to_df.o)
 .data          0x0081d19c        0x0 /OPT/altera/12.1/nios2eds/bin/gnu/H-i686-pc-linux-gnu/bin/../lib/gcc/nios2-elf/4.1.2/libgcc.a(_df_to_si.o)
 .data          0x0081d19c        0x0 /OPT/altera/12.1/nios2eds/bin/gnu/H-i686-pc-linux-gnu/bin/../lib/gcc/nios2-elf/4.1.2/libgcc.a(_thenan_df.o)
 .data          0x0081d19c        0x0 /OPT/altera/12.1/nios2eds/bin/gnu/H-i686-pc-linux-gnu/bin/../lib/gcc/nios2-elf/4.1.2/libgcc.a(_usi_to_df.o)
 .data          0x0081d19c        0x0 /OPT/altera/12.1/nios2eds/bin/gnu/H-i686-pc-linux-gnu/bin/../lib/gcc/nios2-elf/4.1.2/libgcc.a(lib2-divmod.o)
 .data          0x0081d19c        0x0 /OPT/altera/12.1/nios2eds/bin/gnu/H-i686-pc-linux-gnu/bin/../lib/gcc/nios2-elf/4.1.2/libgcc.a(_muldi3.o)
 .data          0x0081d19c        0x0 /OPT/altera/12.1/nios2eds/bin/gnu/H-i686-pc-linux-gnu/bin/../lib/gcc/nios2-elf/4.1.2/libgcc.a(_clz.o)
 .data          0x0081d19c        0x0 /OPT/altera/12.1/nios2eds/bin/gnu/H-i686-pc-linux-gnu/bin/../lib/gcc/nios2-elf/4.1.2/libgcc.a(_clzsi2.o)
 .data          0x0081d19c        0x0 /OPT/altera/12.1/nios2eds/bin/gnu/H-i686-pc-linux-gnu/bin/../lib/gcc/nios2-elf/4.1.2/libgcc.a(_pack_df.o)
 .data          0x0081d19c        0x0 /OPT/altera/12.1/nios2eds/bin/gnu/H-i686-pc-linux-gnu/bin/../lib/gcc/nios2-elf/4.1.2/libgcc.a(_unpack_df.o)
 .data          0x0081d19c        0x0 /OPT/altera/12.1/nios2eds/bin/gnu/H-i686-pc-linux-gnu/bin/../lib/gcc/nios2-elf/4.1.2/libgcc.a(_fpcmp_parts_df.o)
 .data          0x0081d19c        0x0 ../vga_bsp//libucosii_bsp.a(alt_close.o)
 .data          0x0081d19c      0x1a8 ../vga_bsp//libucosii_bsp.a(alt_dev.o)
                0x0081d19c                alt_dev_null
                0x0081d1c4                alt_fd_list
 .data          0x0081d344        0x0 ../vga_bsp//libucosii_bsp.a(alt_errno.o)
 .data          0x0081d344        0x0 ../vga_bsp//libucosii_bsp.a(alt_fstat.o)
 .data          0x0081d344        0x0 ../vga_bsp//libucosii_bsp.a(alt_gettod.o)
 .data          0x0081d344        0x0 ../vga_bsp//libucosii_bsp.a(alt_isatty.o)
 .data          0x0081d344        0x0 ../vga_bsp//libucosii_bsp.a(alt_load.o)
 .data          0x0081d344        0x0 ../vga_bsp//libucosii_bsp.a(alt_lseek.o)
 .data          0x0081d344        0x0 ../vga_bsp//libucosii_bsp.a(alt_main.o)
 .data          0x0081d344        0x0 ../vga_bsp//libucosii_bsp.a(alt_read.o)
 .data          0x0081d344        0x0 ../vga_bsp//libucosii_bsp.a(alt_release_fd.o)
 .data          0x0081d344        0x0 ../vga_bsp//libucosii_bsp.a(alt_sbrk.o)
 .data          0x0081d344        0x0 ../vga_bsp//libucosii_bsp.a(alt_tick.o)
 .data          0x0081d344        0x0 ../vga_bsp//libucosii_bsp.a(alt_write.o)
 .data          0x0081d344        0x0 ../vga_bsp//libucosii_bsp.a(alt_env_lock.o)
 .data          0x0081d344        0x0 ../vga_bsp//libucosii_bsp.a(alt_malloc_lock.o)
 .data          0x0081d344        0x0 ../vga_bsp//libucosii_bsp.a(os_core.o)
 .data          0x0081d344        0x0 ../vga_bsp//libucosii_bsp.a(os_dbg.o)
 .data          0x0081d344        0x0 ../vga_bsp//libucosii_bsp.a(os_flag.o)
 .data          0x0081d344        0x0 ../vga_bsp//libucosii_bsp.a(os_mem.o)
 .data          0x0081d344        0x0 ../vga_bsp//libucosii_bsp.a(os_q.o)
 .data          0x0081d344        0x0 ../vga_bsp//libucosii_bsp.a(os_sem.o)
 .data          0x0081d344        0x0 ../vga_bsp//libucosii_bsp.a(os_task.o)
 .data          0x0081d344        0x0 ../vga_bsp//libucosii_bsp.a(os_time.o)
 .data          0x0081d344     0x1118 ../vga_bsp//libucosii_bsp.a(alt_sys_init.o)
 .data          0x0081e45c        0x0 ../vga_bsp//libucosii_bsp.a(altera_avalon_jtag_uart_fd.o)
 .data          0x0081e45c        0x0 ../vga_bsp//libucosii_bsp.a(altera_avalon_jtag_uart_init.o)
 .data          0x0081e45c        0x0 ../vga_bsp//libucosii_bsp.a(altera_avalon_jtag_uart_ioctl.o)
 .data          0x0081e45c        0x0 ../vga_bsp//libucosii_bsp.a(altera_avalon_jtag_uart_read.o)
 .data          0x0081e45c        0x0 ../vga_bsp//libucosii_bsp.a(altera_avalon_jtag_uart_write.o)
 .data          0x0081e45c        0x0 ../vga_bsp//libucosii_bsp.a(altera_avalon_timer_sc.o)
 .data          0x0081e45c        0x0 ../vga_bsp//libucosii_bsp.a(altera_up_avalon_character_lcd.o)
 .data          0x0081e45c        0x0 ../vga_bsp//libucosii_bsp.a(altera_up_avalon_video_pixel_buffer_dma.o)
 .data          0x0081e45c        0x0 ../vga_bsp//libucosii_bsp.a(altera_up_sd_card_avalon_interface.o)
 .data          0x0081e45c        0x0 ../vga_bsp//libucosii_bsp.a(alt_alarm_start.o)
 .data          0x0081e45c        0x0 ../vga_bsp//libucosii_bsp.a(alt_dcache_flush_all.o)
 .data          0x0081e45c        0x0 ../vga_bsp//libucosii_bsp.a(alt_dev_llist_insert.o)
 .data          0x0081e45c        0x0 ../vga_bsp//libucosii_bsp.a(alt_do_ctors.o)
 .data          0x0081e45c        0x0 ../vga_bsp//libucosii_bsp.a(alt_do_dtors.o)
 .data          0x0081e45c        0x0 ../vga_bsp//libucosii_bsp.a(alt_find_dev.o)
 .data          0x0081e45c        0x0 ../vga_bsp//libucosii_bsp.a(alt_icache_flush_all.o)
 .data          0x0081e45c        0x0 ../vga_bsp//libucosii_bsp.a(alt_iic.o)
 .data          0x0081e45c        0x0 ../vga_bsp//libucosii_bsp.a(alt_iic_isr_register.o)
 .data          0x0081e45c        0x0 ../vga_bsp//libucosii_bsp.a(alt_io_redirect.o)
 .data          0x0081e45c        0x0 ../vga_bsp//libucosii_bsp.a(alt_irq_entry.o)
 .data          0x0081e45c        0x0 ../vga_bsp//libucosii_bsp.a(alt_irq_handler.o)
 .data          0x0081e45c        0x0 ../vga_bsp//libucosii_bsp.a(alt_irq_vars.o)
 .data          0x0081e45c        0x0 ../vga_bsp//libucosii_bsp.a(alt_open.o)
 .data          0x0081e45c        0x0 ../vga_bsp//libucosii_bsp.a(altera_nios2_qsys_irq.o)
 .data          0x0081e45c        0x0 ../vga_bsp//libucosii_bsp.a(os_cpu_a.o)
 .data          0x0081e45c        0x0 ../vga_bsp//libucosii_bsp.a(os_cpu_c.o)
 .data          0x0081e45c        0x0 ../vga_bsp//libucosii_bsp.a(alt_exception_entry.o)
 .data          0x0081e45c        0x0 ../vga_bsp//libucosii_bsp.a(alt_find_file.o)
 .data          0x0081e45c        0x0 ../vga_bsp//libucosii_bsp.a(alt_get_fd.o)
 .data          0x0081e45c        0x0 ../vga_bsp//libucosii_bsp.a(alt_icache_flush.o)
 .data          0x0081e45c        0x0 /OPT/altera/12.1/nios2eds/bin/gnu/H-i686-pc-linux-gnu/bin/../lib/gcc/nios2-elf/4.1.2/../../../../nios2-elf/lib/libc.a(lib_a-atexit.o)
 .data          0x0081e45c        0x0 /OPT/altera/12.1/nios2eds/bin/gnu/H-i686-pc-linux-gnu/bin/../lib/gcc/nios2-elf/4.1.2/../../../../nios2-elf/lib/libc.a(lib_a-exit.o)
 .data          0x0081e45c        0x0 /OPT/altera/12.1/nios2eds/bin/gnu/H-i686-pc-linux-gnu/bin/../lib/gcc/nios2-elf/4.1.2/../../../../nios2-elf/lib/libc.a(lib_a-memcmp.o)
 .data          0x0081e45c        0x0 /OPT/altera/12.1/nios2eds/bin/gnu/H-i686-pc-linux-gnu/bin/../lib/gcc/nios2-elf/4.1.2/../../../../nios2-elf/lib/libc.a(lib_a-__atexit.o)
 .data          0x0081e45c        0x0 /OPT/altera/12.1/nios2eds/bin/gnu/H-i686-pc-linux-gnu/bin/../lib/gcc/nios2-elf/4.1.2/../../../../nios2-elf/lib/libc.a(lib_a-__call_atexit.o)
 .data          0x0081e45c        0x0 ../vga_bsp//libucosii_bsp.a(alt_exit.o)
                0x0082645c                _gp = ABSOLUTE ((. + 0x8000))
                0x0082645c                PROVIDE (gp, _gp)
 *(.rwdata .rwdata.*)
 *(.sdata .sdata.* .gnu.linkonce.s.*)
 .sdata         0x0081e45c        0x8 /OPT/altera/12.1/nios2eds/bin/gnu/H-i686-pc-linux-gnu/bin/../lib/gcc/nios2-elf/4.1.2/../../../../nios2-elf/lib/libc.a(lib_a-mallocr.o)
                0x0081e45c                __malloc_trim_threshold
                0x0081e460                __malloc_sbrk_base
 .sdata         0x0081e464        0x8 /OPT/altera/12.1/nios2eds/bin/gnu/H-i686-pc-linux-gnu/bin/../lib/gcc/nios2-elf/4.1.2/../../../../nios2-elf/lib/libc.a(lib_a-mktm_r.o)
 .sdata         0x0081e46c        0x8 /OPT/altera/12.1/nios2eds/bin/gnu/H-i686-pc-linux-gnu/bin/../lib/gcc/nios2-elf/4.1.2/../../../../nios2-elf/lib/libc.a(lib_a-tzvars.o)
                0x0081e46c                _tzname
 .sdata         0x0081e474        0x8 /OPT/altera/12.1/nios2eds/bin/gnu/H-i686-pc-linux-gnu/bin/../lib/gcc/nios2-elf/4.1.2/../../../../nios2-elf/lib/libc.a(lib_a-impure.o)
                0x0081e474                _impure_ptr
                0x0081e478                _global_impure_ptr
 .sdata         0x0081e47c        0x8 /OPT/altera/12.1/nios2eds/bin/gnu/H-i686-pc-linux-gnu/bin/../lib/gcc/nios2-elf/4.1.2/../../../../nios2-elf/lib/libc.a(lib_a-locale.o)
                0x0081e47c                __mb_cur_max
 .sdata         0x0081e484       0x14 ../vga_bsp//libucosii_bsp.a(alt_dev.o)
                0x0081e484                alt_fs_list
                0x0081e48c                alt_dev_list
                0x0081e494                alt_max_fd
 .sdata         0x0081e498        0x4 ../vga_bsp//libucosii_bsp.a(alt_errno.o)
                0x0081e498                alt_errno
 .sdata         0x0081e49c        0x4 ../vga_bsp//libucosii_bsp.a(alt_sbrk.o)
 .sdata         0x0081e4a0        0x8 ../vga_bsp//libucosii_bsp.a(alt_tick.o)
                0x0081e4a0                alt_alarm_list
 .sdata         0x0081e4a8        0x4 ../vga_bsp//libucosii_bsp.a(alt_env_lock.o)
 .sdata         0x0081e4ac        0x4 ../vga_bsp//libucosii_bsp.a(alt_malloc_lock.o)
 .sdata         0x0081e4b0       0x74 ../vga_bsp//libucosii_bsp.a(os_dbg.o)
                0x0081e4b0                OSDebugEn
                0x0081e4b4                OSEndiannessTest
                0x0081e4b8                OSEventEn
                0x0081e4ba                OSEventMax
                0x0081e4bc                OSEventNameSize
                0x0081e4be                OSEventSize
                0x0081e4c0                OSEventTblSize
                0x0081e4c2                OSEventMultiEn
                0x0081e4c4                OSFlagEn
                0x0081e4c6                OSFlagGrpSize
                0x0081e4c8                OSFlagNodeSize
                0x0081e4ca                OSFlagWidth
                0x0081e4cc                OSFlagMax
                0x0081e4ce                OSFlagNameSize
                0x0081e4d0                OSLowestPrio
                0x0081e4d2                OSMboxEn
                0x0081e4d4                OSMemEn
                0x0081e4d6                OSMemMax
                0x0081e4d8                OSMemNameSize
                0x0081e4da                OSMemSize
                0x0081e4dc                OSMemTblSize
                0x0081e4de                OSMutexEn
                0x0081e4e0                OSPtrSize
                0x0081e4e2                OSQEn
                0x0081e4e4                OSQMax
                0x0081e4e6                OSQSize
                0x0081e4e8                OSRdyTblSize
                0x0081e4ea                OSSemEn
                0x0081e4ec                OSStkWidth
                0x0081e4ee                OSTaskCreateEn
                0x0081e4f0                OSTaskCreateExtEn
                0x0081e4f2                OSTaskDelEn
                0x0081e4f4                OSTaskIdleStkSize
                0x0081e4f6                OSTaskProfileEn
                0x0081e4f8                OSTaskMax
                0x0081e4fa                OSTaskNameSize
                0x0081e4fc                OSTaskStatEn
                0x0081e4fe                OSTaskStatStkSize
                0x0081e500                OSTaskStatStkChkEn
                0x0081e502                OSTaskSwHookEn
                0x0081e504                OSTCBPrioTblMax
                0x0081e506                OSTCBSize
                0x0081e508                OSTicksPerSec
                0x0081e50a                OSTimeTickHookEn
                0x0081e50c                OSVersionNbr
                0x0081e50e                OSTmrEn
                0x0081e510                OSTmrCfgMax
                0x0081e512                OSTmrCfgNameSize
                0x0081e514                OSTmrCfgWheelSize
                0x0081e516                OSTmrCfgTicksPerSec
                0x0081e518                OSTmrSize
                0x0081e51a                OSTmrTblSize
                0x0081e51c                OSTmrWheelSize
                0x0081e51e                OSTmrWheelTblSize
                0x0081e520                OSDataSize
 .sdata         0x0081e524        0x4 ../vga_bsp//libucosii_bsp.a(alt_irq_vars.o)
                0x0081e524                alt_priority_mask
 *(.sdata2 .sdata2.* .gnu.linkonce.s2.*)
                0x0081e528                . = ALIGN (0x4)
                0x0081e528                _edata = ABSOLUTE (.)
                0x0081e528                PROVIDE (edata, ABSOLUTE (.))
                0x0081e528                PROVIDE (__ram_rwdata_end, ABSOLUTE (.))
                0x0081e528                PROVIDE (__flash_rwdata_start, LOADADDR (.rwdata))

.bss            0x00820108     0x7b28
                0x00820108                __bss_start = ABSOLUTE (.)
                0x00820108                PROVIDE (__sbss_start, ABSOLUTE (.))
                0x00820108                PROVIDE (___sbss_start, ABSOLUTE (.))
 *(.dynsbss)
 *(.sbss .sbss.* .gnu.linkonce.sb.*)
 .sbss          0x00820108        0xc /OPT/altera/12.1/nios2eds/bin/gnu/H-i686-pc-linux-gnu/bin/../lib/gcc/nios2-elf/4.1.2/../../../../nios2-elf/lib/libc.a(lib_a-mallocr.o)
                0x00820108                __malloc_top_pad
                0x0082010c                __malloc_max_sbrked_mem
                0x00820110                __malloc_max_total_mem
 .sbss          0x00820114        0x8 /OPT/altera/12.1/nios2eds/bin/gnu/H-i686-pc-linux-gnu/bin/../lib/gcc/nios2-elf/4.1.2/../../../../nios2-elf/lib/libc.a(lib_a-tzvars.o)
                0x00820114                _daylight
                0x00820118                _timezone
 .sbss          0x0082011c        0x4 /OPT/altera/12.1/nios2eds/bin/gnu/H-i686-pc-linux-gnu/bin/../lib/gcc/nios2-elf/4.1.2/../../../../nios2-elf/lib/libc.a(lib_a-int_errno.o)
                0x0082011c                errno
 .sbss          0x00820120        0xc /OPT/altera/12.1/nios2eds/bin/gnu/H-i686-pc-linux-gnu/bin/../lib/gcc/nios2-elf/4.1.2/../../../../nios2-elf/lib/libc.a(lib_a-locale.o)
                0x00820120                __nlocale_changed
                0x00820124                __mlocale_changed
                0x00820128                _PathLocale
 .sbss          0x0082012c        0x4 ../vga_bsp//libucosii_bsp.a(alt_dev.o)
                0x0082012c                alt_fd_list_lock
 .sbss          0x00820130       0x10 ../vga_bsp//libucosii_bsp.a(alt_gettod.o)
                0x00820130                alt_timezone
                0x00820138                alt_resettime
 .sbss          0x00820140        0xc ../vga_bsp//libucosii_bsp.a(alt_main.o)
                0x00820140                alt_argc
                0x00820144                alt_argv
                0x00820148                alt_envp
 .sbss          0x0082014c        0x8 ../vga_bsp//libucosii_bsp.a(alt_tick.o)
                0x0082014c                _alt_tick_rate
                0x00820150                _alt_nticks
 .sbss          0x00820154        0x8 ../vga_bsp//libucosii_bsp.a(alt_env_lock.o)
                0x00820158                alt_envsem
 .sbss          0x0082015c        0x8 ../vga_bsp//libucosii_bsp.a(alt_malloc_lock.o)
                0x00820160                alt_heapsem
 .sbss          0x00820164       0x50 ../vga_bsp//libucosii_bsp.a(os_core.o)
                0x00820164                OSLockNesting
                0x00820165                OSRunning
                0x00820168                OSIdleCtr
                0x0082016c                OSPrioHighRdy
                0x0082016d                OSPrioCur
                0x00820170                OSTCBList
                0x00820174                OSTickStepState
                0x00820178                OSCtxSwCtr
                0x0082017c                OSIdleCtrMax
                0x00820180                OSTCBFreeList
                0x00820184                OSCPUUsage
                0x00820185                OSTaskCtr
                0x00820188                OSMemFreeList
                0x0082018c                OSTCBHighRdy
                0x00820190                OSQFreeList
                0x00820194                OSRdyGrp
                0x00820195                OSRdyTbl
                0x00820198                OSEventFreeList
                0x0082019c                OSIntNesting
                0x008201a0                OSTCBCur
                0x008201a4                OSTime
                0x008201a8                OSFlagFreeList
                0x008201ac                OSStatRdy
                0x008201b0                OSIdleCtrRun
 .sbss          0x008201b4       0x34 ../vga_bsp//libucosii_bsp.a(altera_up_sd_card_avalon_interface.o)
                0x008201b4                initialized
                0x008201b8                is_sd_card_formated_as_FAT16
                0x008201bc                aux_status_register
                0x008201c0                status_register
                0x008201c4                CSD_register_w0
                0x008201c8                command_register
                0x008201cc                command_argument_register
                0x008201d0                buffer_memory
                0x008201d4                fat_partition_offset_in_512_byte_sectors
                0x008201d8                fat_partition_size_in_512_byte_sectors
                0x008201dc                device_pointer
                0x008201e0                current_sector_modified
                0x008201e4                current_sector_index
 .sbss          0x008201e8        0x4 ../vga_bsp//libucosii_bsp.a(alt_irq_vars.o)
                0x008201e8                alt_irq_active
 *(.sbss2 .sbss2.* .gnu.linkonce.sb2.*)
 *(.scommon)
                0x008201ec                PROVIDE (__sbss_end, ABSOLUTE (.))
                0x008201ec                PROVIDE (___sbss_end, ABSOLUTE (.))
 *(.dynbss)
 *(.bss .bss.* .gnu.linkonce.b.*)
 .bss           0x008201ec        0x0 ../vga_bsp//obj/HAL/src/crt0.o
 .bss           0x008201ec        0x0 obj/default/hello_ucosii.o
 .bss           0x008201ec        0x0 /OPT/altera/12.1/nios2eds/bin/gnu/H-i686-pc-linux-gnu/bin/../lib/gcc/nios2-elf/4.1.2/../../../../nios2-elf/lib/libc.a(lib_a-ctime.o)
 .bss           0x008201ec        0x0 /OPT/altera/12.1/nios2eds/bin/gnu/H-i686-pc-linux-gnu/bin/../lib/gcc/nios2-elf/4.1.2/../../../../nios2-elf/lib/libc.a(lib_a-lcltime.o)
 .bss           0x008201ec        0x0 /OPT/altera/12.1/nios2eds/bin/gnu/H-i686-pc-linux-gnu/bin/../lib/gcc/nios2-elf/4.1.2/../../../../nios2-elf/lib/libc.a(lib_a-lcltime_r.o)
 .bss           0x008201ec        0x0 /OPT/altera/12.1/nios2eds/bin/gnu/H-i686-pc-linux-gnu/bin/../lib/gcc/nios2-elf/4.1.2/../../../../nios2-elf/lib/libc.a(lib_a-malloc.o)
 .bss           0x008201ec       0x28 /OPT/altera/12.1/nios2eds/bin/gnu/H-i686-pc-linux-gnu/bin/../lib/gcc/nios2-elf/4.1.2/../../../../nios2-elf/lib/libc.a(lib_a-mallocr.o)
                0x008201ec                __malloc_current_mallinfo
 .bss           0x00820214        0x0 /OPT/altera/12.1/nios2eds/bin/gnu/H-i686-pc-linux-gnu/bin/../lib/gcc/nios2-elf/4.1.2/../../../../nios2-elf/lib/libc.a(lib_a-mktm_r.o)
 .bss           0x00820214        0x0 /OPT/altera/12.1/nios2eds/bin/gnu/H-i686-pc-linux-gnu/bin/../lib/gcc/nios2-elf/4.1.2/../../../../nios2-elf/lib/libc.a(lib_a-printf.o)
 .bss           0x00820214        0x0 /OPT/altera/12.1/nios2eds/bin/gnu/H-i686-pc-linux-gnu/bin/../lib/gcc/nios2-elf/4.1.2/../../../../nios2-elf/lib/libc.a(lib_a-puts.o)
 .bss           0x00820214        0x0 /OPT/altera/12.1/nios2eds/bin/gnu/H-i686-pc-linux-gnu/bin/../lib/gcc/nios2-elf/4.1.2/../../../../nios2-elf/lib/libc.a(lib_a-sbrkr.o)
 .bss           0x00820214        0x0 /OPT/altera/12.1/nios2eds/bin/gnu/H-i686-pc-linux-gnu/bin/../lib/gcc/nios2-elf/4.1.2/../../../../nios2-elf/lib/libc.a(lib_a-strlen.o)
 .bss           0x00820214        0x0 /OPT/altera/12.1/nios2eds/bin/gnu/H-i686-pc-linux-gnu/bin/../lib/gcc/nios2-elf/4.1.2/../../../../nios2-elf/lib/libc.a(lib_a-time.o)
 .bss           0x00820214        0x0 /OPT/altera/12.1/nios2eds/bin/gnu/H-i686-pc-linux-gnu/bin/../lib/gcc/nios2-elf/4.1.2/../../../../nios2-elf/lib/libc.a(lib_a-tzlock.o)
 .bss           0x00820214        0x0 /OPT/altera/12.1/nios2eds/bin/gnu/H-i686-pc-linux-gnu/bin/../lib/gcc/nios2-elf/4.1.2/../../../../nios2-elf/lib/libc.a(lib_a-tzvars.o)
 .bss           0x00820214        0x0 /OPT/altera/12.1/nios2eds/bin/gnu/H-i686-pc-linux-gnu/bin/../lib/gcc/nios2-elf/4.1.2/../../../../nios2-elf/lib/libc.a(lib_a-vfprintf.o)
 .bss           0x00820214        0x0 /OPT/altera/12.1/nios2eds/bin/gnu/H-i686-pc-linux-gnu/bin/../lib/gcc/nios2-elf/4.1.2/../../../../nios2-elf/lib/libc.a(lib_a-wsetup.o)
 .bss           0x00820214        0x0 /OPT/altera/12.1/nios2eds/bin/gnu/H-i686-pc-linux-gnu/bin/../lib/gcc/nios2-elf/4.1.2/../../../../nios2-elf/lib/libc.a(lib_a-asctime.o)
 .bss           0x00820214        0x0 /OPT/altera/12.1/nios2eds/bin/gnu/H-i686-pc-linux-gnu/bin/../lib/gcc/nios2-elf/4.1.2/../../../../nios2-elf/lib/libc.a(lib_a-asctime_r.o)
 .bss           0x00820214        0x0 /OPT/altera/12.1/nios2eds/bin/gnu/H-i686-pc-linux-gnu/bin/../lib/gcc/nios2-elf/4.1.2/../../../../nios2-elf/lib/libc.a(lib_a-dtoa.o)
 .bss           0x00820214        0x0 /OPT/altera/12.1/nios2eds/bin/gnu/H-i686-pc-linux-gnu/bin/../lib/gcc/nios2-elf/4.1.2/../../../../nios2-elf/lib/libc.a(lib_a-fflush.o)
 .bss           0x00820214        0x0 /OPT/altera/12.1/nios2eds/bin/gnu/H-i686-pc-linux-gnu/bin/../lib/gcc/nios2-elf/4.1.2/../../../../nios2-elf/lib/libc.a(lib_a-findfp.o)
 .bss           0x00820214        0x0 /OPT/altera/12.1/nios2eds/bin/gnu/H-i686-pc-linux-gnu/bin/../lib/gcc/nios2-elf/4.1.2/../../../../nios2-elf/lib/libc.a(lib_a-freer.o)
 .bss           0x00820214        0x0 /OPT/altera/12.1/nios2eds/bin/gnu/H-i686-pc-linux-gnu/bin/../lib/gcc/nios2-elf/4.1.2/../../../../nios2-elf/lib/libc.a(lib_a-fvwrite.o)
 .bss           0x00820214        0x0 /OPT/altera/12.1/nios2eds/bin/gnu/H-i686-pc-linux-gnu/bin/../lib/gcc/nios2-elf/4.1.2/../../../../nios2-elf/lib/libc.a(lib_a-fwalk.o)
 .bss           0x00820214        0x0 /OPT/altera/12.1/nios2eds/bin/gnu/H-i686-pc-linux-gnu/bin/../lib/gcc/nios2-elf/4.1.2/../../../../nios2-elf/lib/libc.a(lib_a-gettimeofdayr.o)
 .bss           0x00820214        0x0 /OPT/altera/12.1/nios2eds/bin/gnu/H-i686-pc-linux-gnu/bin/../lib/gcc/nios2-elf/4.1.2/../../../../nios2-elf/lib/libc.a(lib_a-gettzinfo.o)
 .bss           0x00820214        0x0 /OPT/altera/12.1/nios2eds/bin/gnu/H-i686-pc-linux-gnu/bin/../lib/gcc/nios2-elf/4.1.2/../../../../nios2-elf/lib/libc.a(lib_a-impure.o)
 .bss           0x00820214        0x0 /OPT/altera/12.1/nios2eds/bin/gnu/H-i686-pc-linux-gnu/bin/../lib/gcc/nios2-elf/4.1.2/../../../../nios2-elf/lib/libc.a(lib_a-int_errno.o)
 .bss           0x00820214        0x0 /OPT/altera/12.1/nios2eds/bin/gnu/H-i686-pc-linux-gnu/bin/../lib/gcc/nios2-elf/4.1.2/../../../../nios2-elf/lib/libc.a(lib_a-locale.o)
 .bss           0x00820214        0x0 /OPT/altera/12.1/nios2eds/bin/gnu/H-i686-pc-linux-gnu/bin/../lib/gcc/nios2-elf/4.1.2/../../../../nios2-elf/lib/libc.a(lib_a-makebuf.o)
 .bss           0x00820214        0x0 /OPT/altera/12.1/nios2eds/bin/gnu/H-i686-pc-linux-gnu/bin/../lib/gcc/nios2-elf/4.1.2/../../../../nios2-elf/lib/libc.a(lib_a-memchr.o)
 .bss           0x00820214        0x0 /OPT/altera/12.1/nios2eds/bin/gnu/H-i686-pc-linux-gnu/bin/../lib/gcc/nios2-elf/4.1.2/../../../../nios2-elf/lib/libc.a(lib_a-memcpy.o)
 .bss           0x00820214        0x0 /OPT/altera/12.1/nios2eds/bin/gnu/H-i686-pc-linux-gnu/bin/../lib/gcc/nios2-elf/4.1.2/../../../../nios2-elf/lib/libc.a(lib_a-memmove.o)
 .bss           0x00820214        0x0 /OPT/altera/12.1/nios2eds/bin/gnu/H-i686-pc-linux-gnu/bin/../lib/gcc/nios2-elf/4.1.2/../../../../nios2-elf/lib/libc.a(lib_a-memset.o)
 .bss           0x00820214        0x0 /OPT/altera/12.1/nios2eds/bin/gnu/H-i686-pc-linux-gnu/bin/../lib/gcc/nios2-elf/4.1.2/../../../../nios2-elf/lib/libc.a(lib_a-mprec.o)
 .bss           0x00820214        0x0 /OPT/altera/12.1/nios2eds/bin/gnu/H-i686-pc-linux-gnu/bin/../lib/gcc/nios2-elf/4.1.2/../../../../nios2-elf/lib/libc.a(lib_a-reallocr.o)
 .bss           0x00820214        0x0 /OPT/altera/12.1/nios2eds/bin/gnu/H-i686-pc-linux-gnu/bin/../lib/gcc/nios2-elf/4.1.2/../../../../nios2-elf/lib/libc.a(lib_a-s_isinfd.o)
 .bss           0x00820214        0x0 /OPT/altera/12.1/nios2eds/bin/gnu/H-i686-pc-linux-gnu/bin/../lib/gcc/nios2-elf/4.1.2/../../../../nios2-elf/lib/libc.a(lib_a-s_isnand.o)
 .bss           0x00820214        0x0 /OPT/altera/12.1/nios2eds/bin/gnu/H-i686-pc-linux-gnu/bin/../lib/gcc/nios2-elf/4.1.2/../../../../nios2-elf/lib/libc.a(lib_a-sprintf.o)
 .bss           0x00820214        0x0 /OPT/altera/12.1/nios2eds/bin/gnu/H-i686-pc-linux-gnu/bin/../lib/gcc/nios2-elf/4.1.2/../../../../nios2-elf/lib/libc.a(lib_a-stdio.o)
 .bss           0x00820214        0x0 /OPT/altera/12.1/nios2eds/bin/gnu/H-i686-pc-linux-gnu/bin/../lib/gcc/nios2-elf/4.1.2/../../../../nios2-elf/lib/libc.a(lib_a-strcmp.o)
 .bss           0x00820214        0x0 /OPT/altera/12.1/nios2eds/bin/gnu/H-i686-pc-linux-gnu/bin/../lib/gcc/nios2-elf/4.1.2/../../../../nios2-elf/lib/libc.a(lib_a-writer.o)
 .bss           0x00820214        0x0 /OPT/altera/12.1/nios2eds/bin/gnu/H-i686-pc-linux-gnu/bin/../lib/gcc/nios2-elf/4.1.2/../../../../nios2-elf/lib/libc.a(lib_a-callocr.o)
 .bss           0x00820214        0x0 /OPT/altera/12.1/nios2eds/bin/gnu/H-i686-pc-linux-gnu/bin/../lib/gcc/nios2-elf/4.1.2/../../../../nios2-elf/lib/libc.a(lib_a-closer.o)
 .bss           0x00820214        0x0 /OPT/altera/12.1/nios2eds/bin/gnu/H-i686-pc-linux-gnu/bin/../lib/gcc/nios2-elf/4.1.2/../../../../nios2-elf/lib/libc.a(lib_a-fclose.o)
 .bss           0x00820214        0x0 /OPT/altera/12.1/nios2eds/bin/gnu/H-i686-pc-linux-gnu/bin/../lib/gcc/nios2-elf/4.1.2/../../../../nios2-elf/lib/libc.a(lib_a-fstatr.o)
 .bss           0x00820214        0x0 /OPT/altera/12.1/nios2eds/bin/gnu/H-i686-pc-linux-gnu/bin/../lib/gcc/nios2-elf/4.1.2/../../../../nios2-elf/lib/libc.a(lib_a-isattyr.o)
 .bss           0x00820214        0x0 /OPT/altera/12.1/nios2eds/bin/gnu/H-i686-pc-linux-gnu/bin/../lib/gcc/nios2-elf/4.1.2/../../../../nios2-elf/lib/libc.a(lib_a-lseekr.o)
 .bss           0x00820214        0x0 /OPT/altera/12.1/nios2eds/bin/gnu/H-i686-pc-linux-gnu/bin/../lib/gcc/nios2-elf/4.1.2/../../../../nios2-elf/lib/libc.a(lib_a-readr.o)
 .bss           0x00820214        0x0 /OPT/altera/12.1/nios2eds/bin/gnu/H-i686-pc-linux-gnu/bin/../lib/gcc/nios2-elf/4.1.2/libgcc.a(_udivdi3.o)
 .bss           0x00820214        0x0 /OPT/altera/12.1/nios2eds/bin/gnu/H-i686-pc-linux-gnu/bin/../lib/gcc/nios2-elf/4.1.2/libgcc.a(_umoddi3.o)
 .bss           0x00820214        0x0 /OPT/altera/12.1/nios2eds/bin/gnu/H-i686-pc-linux-gnu/bin/../lib/gcc/nios2-elf/4.1.2/libgcc.a(_addsub_df.o)
 .bss           0x00820214        0x0 /OPT/altera/12.1/nios2eds/bin/gnu/H-i686-pc-linux-gnu/bin/../lib/gcc/nios2-elf/4.1.2/libgcc.a(_mul_df.o)
 .bss           0x00820214        0x0 /OPT/altera/12.1/nios2eds/bin/gnu/H-i686-pc-linux-gnu/bin/../lib/gcc/nios2-elf/4.1.2/libgcc.a(_div_df.o)
 .bss           0x00820214        0x0 /OPT/altera/12.1/nios2eds/bin/gnu/H-i686-pc-linux-gnu/bin/../lib/gcc/nios2-elf/4.1.2/libgcc.a(_eq_df.o)
 .bss           0x00820214        0x0 /OPT/altera/12.1/nios2eds/bin/gnu/H-i686-pc-linux-gnu/bin/../lib/gcc/nios2-elf/4.1.2/libgcc.a(_ne_df.o)
 .bss           0x00820214        0x0 /OPT/altera/12.1/nios2eds/bin/gnu/H-i686-pc-linux-gnu/bin/../lib/gcc/nios2-elf/4.1.2/libgcc.a(_gt_df.o)
 .bss           0x00820214        0x0 /OPT/altera/12.1/nios2eds/bin/gnu/H-i686-pc-linux-gnu/bin/../lib/gcc/nios2-elf/4.1.2/libgcc.a(_ge_df.o)
 .bss           0x00820214        0x0 /OPT/altera/12.1/nios2eds/bin/gnu/H-i686-pc-linux-gnu/bin/../lib/gcc/nios2-elf/4.1.2/libgcc.a(_lt_df.o)
 .bss           0x00820214        0x0 /OPT/altera/12.1/nios2eds/bin/gnu/H-i686-pc-linux-gnu/bin/../lib/gcc/nios2-elf/4.1.2/libgcc.a(_si_to_df.o)
 .bss           0x00820214        0x0 /OPT/altera/12.1/nios2eds/bin/gnu/H-i686-pc-linux-gnu/bin/../lib/gcc/nios2-elf/4.1.2/libgcc.a(_df_to_si.o)
 .bss           0x00820214        0x0 /OPT/altera/12.1/nios2eds/bin/gnu/H-i686-pc-linux-gnu/bin/../lib/gcc/nios2-elf/4.1.2/libgcc.a(_thenan_df.o)
 .bss           0x00820214        0x0 /OPT/altera/12.1/nios2eds/bin/gnu/H-i686-pc-linux-gnu/bin/../lib/gcc/nios2-elf/4.1.2/libgcc.a(_usi_to_df.o)
 .bss           0x00820214        0x0 /OPT/altera/12.1/nios2eds/bin/gnu/H-i686-pc-linux-gnu/bin/../lib/gcc/nios2-elf/4.1.2/libgcc.a(lib2-divmod.o)
 .bss           0x00820214        0x0 /OPT/altera/12.1/nios2eds/bin/gnu/H-i686-pc-linux-gnu/bin/../lib/gcc/nios2-elf/4.1.2/libgcc.a(_muldi3.o)
 .bss           0x00820214        0x0 /OPT/altera/12.1/nios2eds/bin/gnu/H-i686-pc-linux-gnu/bin/../lib/gcc/nios2-elf/4.1.2/libgcc.a(_clz.o)
 .bss           0x00820214        0x0 /OPT/altera/12.1/nios2eds/bin/gnu/H-i686-pc-linux-gnu/bin/../lib/gcc/nios2-elf/4.1.2/libgcc.a(_clzsi2.o)
 .bss           0x00820214        0x0 /OPT/altera/12.1/nios2eds/bin/gnu/H-i686-pc-linux-gnu/bin/../lib/gcc/nios2-elf/4.1.2/libgcc.a(_pack_df.o)
 .bss           0x00820214        0x0 /OPT/altera/12.1/nios2eds/bin/gnu/H-i686-pc-linux-gnu/bin/../lib/gcc/nios2-elf/4.1.2/libgcc.a(_unpack_df.o)
 .bss           0x00820214        0x0 /OPT/altera/12.1/nios2eds/bin/gnu/H-i686-pc-linux-gnu/bin/../lib/gcc/nios2-elf/4.1.2/libgcc.a(_fpcmp_parts_df.o)
 .bss           0x00820214        0x0 ../vga_bsp//libucosii_bsp.a(alt_close.o)
 .bss           0x00820214        0x0 ../vga_bsp//libucosii_bsp.a(alt_dev.o)
 .bss           0x00820214        0x0 ../vga_bsp//libucosii_bsp.a(alt_errno.o)
 .bss           0x00820214        0x0 ../vga_bsp//libucosii_bsp.a(alt_fstat.o)
 .bss           0x00820214        0x0 ../vga_bsp//libucosii_bsp.a(alt_gettod.o)
 .bss           0x00820214        0x0 ../vga_bsp//libucosii_bsp.a(alt_isatty.o)
 .bss           0x00820214        0x0 ../vga_bsp//libucosii_bsp.a(alt_load.o)
 .bss           0x00820214        0x0 ../vga_bsp//libucosii_bsp.a(alt_lseek.o)
 .bss           0x00820214        0x0 ../vga_bsp//libucosii_bsp.a(alt_main.o)
 .bss           0x00820214        0x0 ../vga_bsp//libucosii_bsp.a(alt_read.o)
 .bss           0x00820214        0x0 ../vga_bsp//libucosii_bsp.a(alt_release_fd.o)
 .bss           0x00820214        0x0 ../vga_bsp//libucosii_bsp.a(alt_sbrk.o)
 .bss           0x00820214        0x0 ../vga_bsp//libucosii_bsp.a(alt_tick.o)
 .bss           0x00820214        0x0 ../vga_bsp//libucosii_bsp.a(alt_write.o)
 .bss           0x00820214        0x0 ../vga_bsp//libucosii_bsp.a(alt_env_lock.o)
 .bss           0x00820214        0x0 ../vga_bsp//libucosii_bsp.a(alt_malloc_lock.o)
 .bss           0x00820214        0x0 ../vga_bsp//libucosii_bsp.a(os_core.o)
 .bss           0x00820214        0x0 ../vga_bsp//libucosii_bsp.a(os_dbg.o)
 .bss           0x00820214        0x0 ../vga_bsp//libucosii_bsp.a(os_flag.o)
 .bss           0x00820214        0x0 ../vga_bsp//libucosii_bsp.a(os_mem.o)
 .bss           0x00820214        0x0 ../vga_bsp//libucosii_bsp.a(os_q.o)
 .bss           0x00820214        0x0 ../vga_bsp//libucosii_bsp.a(os_sem.o)
 .bss           0x00820214        0x0 ../vga_bsp//libucosii_bsp.a(os_task.o)
 .bss           0x00820214        0x0 ../vga_bsp//libucosii_bsp.a(os_time.o)
 .bss           0x00820214        0x0 ../vga_bsp//libucosii_bsp.a(alt_sys_init.o)
 .bss           0x00820214        0x0 ../vga_bsp//libucosii_bsp.a(altera_avalon_jtag_uart_fd.o)
 .bss           0x00820214        0x0 ../vga_bsp//libucosii_bsp.a(altera_avalon_jtag_uart_init.o)
 .bss           0x00820214        0x0 ../vga_bsp//libucosii_bsp.a(altera_avalon_jtag_uart_ioctl.o)
 .bss           0x00820214        0x0 ../vga_bsp//libucosii_bsp.a(altera_avalon_jtag_uart_read.o)
 .bss           0x00820214        0x0 ../vga_bsp//libucosii_bsp.a(altera_avalon_jtag_uart_write.o)
 .bss           0x00820214        0x0 ../vga_bsp//libucosii_bsp.a(altera_avalon_timer_sc.o)
 .bss           0x00820214        0x0 ../vga_bsp//libucosii_bsp.a(altera_up_avalon_character_lcd.o)
 .bss           0x00820214        0x0 ../vga_bsp//libucosii_bsp.a(altera_up_avalon_video_pixel_buffer_dma.o)
 .bss           0x00820214        0x0 ../vga_bsp//libucosii_bsp.a(altera_up_sd_card_avalon_interface.o)
 .bss           0x00820214        0x0 ../vga_bsp//libucosii_bsp.a(alt_alarm_start.o)
 .bss           0x00820214        0x0 ../vga_bsp//libucosii_bsp.a(alt_dcache_flush_all.o)
 .bss           0x00820214        0x0 ../vga_bsp//libucosii_bsp.a(alt_dev_llist_insert.o)
 .bss           0x00820214        0x0 ../vga_bsp//libucosii_bsp.a(alt_do_ctors.o)
 .bss           0x00820214        0x0 ../vga_bsp//libucosii_bsp.a(alt_do_dtors.o)
 .bss           0x00820214        0x0 ../vga_bsp//libucosii_bsp.a(alt_find_dev.o)
 .bss           0x00820214        0x0 ../vga_bsp//libucosii_bsp.a(alt_icache_flush_all.o)
 .bss           0x00820214        0x0 ../vga_bsp//libucosii_bsp.a(alt_iic.o)
 .bss           0x00820214        0x0 ../vga_bsp//libucosii_bsp.a(alt_iic_isr_register.o)
 .bss           0x00820214        0x0 ../vga_bsp//libucosii_bsp.a(alt_io_redirect.o)
 .bss           0x00820214        0x0 ../vga_bsp//libucosii_bsp.a(alt_irq_entry.o)
 .bss           0x00820214        0x0 ../vga_bsp//libucosii_bsp.a(alt_irq_handler.o)
 .bss           0x00820214        0x0 ../vga_bsp//libucosii_bsp.a(alt_irq_vars.o)
 .bss           0x00820214        0x0 ../vga_bsp//libucosii_bsp.a(alt_open.o)
 .bss           0x00820214        0x0 ../vga_bsp//libucosii_bsp.a(altera_nios2_qsys_irq.o)
 .bss           0x00820214        0x0 ../vga_bsp//libucosii_bsp.a(os_cpu_a.o)
 .bss           0x00820214        0x0 ../vga_bsp//libucosii_bsp.a(os_cpu_c.o)
 .bss           0x00820214        0x0 ../vga_bsp//libucosii_bsp.a(alt_exception_entry.o)
 .bss           0x00820214        0x0 ../vga_bsp//libucosii_bsp.a(alt_find_file.o)
 .bss           0x00820214        0x0 ../vga_bsp//libucosii_bsp.a(alt_get_fd.o)
 .bss           0x00820214        0x0 ../vga_bsp//libucosii_bsp.a(alt_icache_flush.o)
 .bss           0x00820214        0x0 /OPT/altera/12.1/nios2eds/bin/gnu/H-i686-pc-linux-gnu/bin/../lib/gcc/nios2-elf/4.1.2/../../../../nios2-elf/lib/libc.a(lib_a-atexit.o)
 .bss           0x00820214        0x0 /OPT/altera/12.1/nios2eds/bin/gnu/H-i686-pc-linux-gnu/bin/../lib/gcc/nios2-elf/4.1.2/../../../../nios2-elf/lib/libc.a(lib_a-exit.o)
 .bss           0x00820214        0x0 /OPT/altera/12.1/nios2eds/bin/gnu/H-i686-pc-linux-gnu/bin/../lib/gcc/nios2-elf/4.1.2/../../../../nios2-elf/lib/libc.a(lib_a-memcmp.o)
 .bss           0x00820214        0x0 /OPT/altera/12.1/nios2eds/bin/gnu/H-i686-pc-linux-gnu/bin/../lib/gcc/nios2-elf/4.1.2/../../../../nios2-elf/lib/libc.a(lib_a-__atexit.o)
 .bss           0x00820214        0x0 /OPT/altera/12.1/nios2eds/bin/gnu/H-i686-pc-linux-gnu/bin/../lib/gcc/nios2-elf/4.1.2/../../../../nios2-elf/lib/libc.a(lib_a-__call_atexit.o)
 .bss           0x00820214        0x0 ../vga_bsp//libucosii_bsp.a(alt_exit.o)
 *(COMMON)
 COMMON         0x00820214     0x4000 obj/default/hello_ucosii.o
                0x00820214                task1_stk
                0x00822214                task2_stk
 COMMON         0x00824214     0x3224 ../vga_bsp//libucosii_bsp.a(os_core.o)
                0x00824214                OSFlagTbl
                0x00824584                OSMemTbl
                0x008251b4                OSTaskStatStk
                0x008259b4                OSQTbl
                0x00825b94                OSTaskIdleStk
                0x00826394                OSEventTbl
                0x00826ed4                OSTCBTbl
                0x008273e4                OSTCBPrioTbl
 COMMON         0x00827438      0x568 ../vga_bsp//libucosii_bsp.a(altera_up_sd_card_avalon_interface.o)
                0x00827438                search_data
                0x0082744c                boot_sector_data
                0x008274a0                active_files
 COMMON         0x008279a0      0x100 ../vga_bsp//libucosii_bsp.a(alt_irq_handler.o)
                0x008279a0                alt_irq
 COMMON         0x00827aa0      0x190 /OPT/altera/12.1/nios2eds/bin/gnu/H-i686-pc-linux-gnu/bin/../lib/gcc/nios2-elf/4.1.2/../../../../nios2-elf/lib/libc.a(lib_a-atexit.o)
                0x00827aa0                _atexit0
                0x00827c30                . = ALIGN (0x4)
                0x00827c30                __bss_end = ABSOLUTE (.)

.sdram_0        0x00827c30        0x0
                0x00827c30                PROVIDE (_alt_partition_sdram_0_start, ABSOLUTE (.))
 *(.sdram_0. sdram_0.*)
                0x00827c30                . = ALIGN (0x4)
                0x00827c30                PROVIDE (_alt_partition_sdram_0_end, ABSOLUTE (.))
                0x00827c30                _end = ABSOLUTE (.)
                0x00827c30                end = ABSOLUTE (.)
                0x00827c30                __alt_stack_base = ABSOLUTE (.)
                0x00827c30                PROVIDE (_alt_partition_sdram_0_load_addr, LOADADDR (.sdram_0))

.onchip_memory2_0
                0x010841bc        0x0 load address 0x00827c30
                0x010841bc                PROVIDE (_alt_partition_onchip_memory2_0_start, ABSOLUTE (.))
 *(.onchip_memory2_0. onchip_memory2_0.*)
                0x010841bc                . = ALIGN (0x4)
                0x010841bc                PROVIDE (_alt_partition_onchip_memory2_0_end, ABSOLUTE (.))
                0x00827c30                PROVIDE (_alt_partition_onchip_memory2_0_load_addr, LOADADDR (.onchip_memory2_0))

.stab
 *(.stab)

.stabstr
 *(.stabstr)

.stab.excl
 *(.stab.excl)

.stab.exclstr
 *(.stab.exclstr)

.stab.index
 *(.stab.index)

.stab.indexstr
 *(.stab.indexstr)

.comment        0x00000000       0x26
 *(.comment)
 .comment       0x00000000       0x26 obj/default/hello_ucosii.o
                                 0x27 (size before relaxing)
 .comment       0x00000000       0x27 /OPT/altera/12.1/nios2eds/bin/gnu/H-i686-pc-linux-gnu/bin/../lib/gcc/nios2-elf/4.1.2/../../../../nios2-elf/lib/libc.a(lib_a-ctime.o)
 .comment       0x00000000       0x27 /OPT/altera/12.1/nios2eds/bin/gnu/H-i686-pc-linux-gnu/bin/../lib/gcc/nios2-elf/4.1.2/../../../../nios2-elf/lib/libc.a(lib_a-lcltime.o)
 .comment       0x00000000       0x27 /OPT/altera/12.1/nios2eds/bin/gnu/H-i686-pc-linux-gnu/bin/../lib/gcc/nios2-elf/4.1.2/../../../../nios2-elf/lib/libc.a(lib_a-lcltime_r.o)
 .comment       0x00000000       0x27 /OPT/altera/12.1/nios2eds/bin/gnu/H-i686-pc-linux-gnu/bin/../lib/gcc/nios2-elf/4.1.2/../../../../nios2-elf/lib/libc.a(lib_a-malloc.o)
 .comment       0x00000000       0x27 /OPT/altera/12.1/nios2eds/bin/gnu/H-i686-pc-linux-gnu/bin/../lib/gcc/nios2-elf/4.1.2/../../../../nios2-elf/lib/libc.a(lib_a-mallocr.o)
 .comment       0x00000000       0x27 /OPT/altera/12.1/nios2eds/bin/gnu/H-i686-pc-linux-gnu/bin/../lib/gcc/nios2-elf/4.1.2/../../../../nios2-elf/lib/libc.a(lib_a-mktm_r.o)
 .comment       0x00000000       0x27 /OPT/altera/12.1/nios2eds/bin/gnu/H-i686-pc-linux-gnu/bin/../lib/gcc/nios2-elf/4.1.2/../../../../nios2-elf/lib/libc.a(lib_a-printf.o)
 .comment       0x00000000       0x27 /OPT/altera/12.1/nios2eds/bin/gnu/H-i686-pc-linux-gnu/bin/../lib/gcc/nios2-elf/4.1.2/../../../../nios2-elf/lib/libc.a(lib_a-puts.o)
 .comment       0x00000000       0x27 /OPT/altera/12.1/nios2eds/bin/gnu/H-i686-pc-linux-gnu/bin/../lib/gcc/nios2-elf/4.1.2/../../../../nios2-elf/lib/libc.a(lib_a-sbrkr.o)
 .comment       0x00000000       0x27 /OPT/altera/12.1/nios2eds/bin/gnu/H-i686-pc-linux-gnu/bin/../lib/gcc/nios2-elf/4.1.2/../../../../nios2-elf/lib/libc.a(lib_a-strlen.o)
 .comment       0x00000000       0x27 /OPT/altera/12.1/nios2eds/bin/gnu/H-i686-pc-linux-gnu/bin/../lib/gcc/nios2-elf/4.1.2/../../../../nios2-elf/lib/libc.a(lib_a-time.o)
 .comment       0x00000000       0x27 /OPT/altera/12.1/nios2eds/bin/gnu/H-i686-pc-linux-gnu/bin/../lib/gcc/nios2-elf/4.1.2/../../../../nios2-elf/lib/libc.a(lib_a-tzlock.o)
 .comment       0x00000000       0x27 /OPT/altera/12.1/nios2eds/bin/gnu/H-i686-pc-linux-gnu/bin/../lib/gcc/nios2-elf/4.1.2/../../../../nios2-elf/lib/libc.a(lib_a-tzvars.o)
 .comment       0x00000000       0x27 /OPT/altera/12.1/nios2eds/bin/gnu/H-i686-pc-linux-gnu/bin/../lib/gcc/nios2-elf/4.1.2/../../../../nios2-elf/lib/libc.a(lib_a-vfprintf.o)
 .comment       0x00000000       0x27 /OPT/altera/12.1/nios2eds/bin/gnu/H-i686-pc-linux-gnu/bin/../lib/gcc/nios2-elf/4.1.2/../../../../nios2-elf/lib/libc.a(lib_a-wsetup.o)
 .comment       0x00000000       0x27 /OPT/altera/12.1/nios2eds/bin/gnu/H-i686-pc-linux-gnu/bin/../lib/gcc/nios2-elf/4.1.2/../../../../nios2-elf/lib/libc.a(lib_a-asctime.o)
 .comment       0x00000000       0x27 /OPT/altera/12.1/nios2eds/bin/gnu/H-i686-pc-linux-gnu/bin/../lib/gcc/nios2-elf/4.1.2/../../../../nios2-elf/lib/libc.a(lib_a-asctime_r.o)
 .comment       0x00000000       0x27 /OPT/altera/12.1/nios2eds/bin/gnu/H-i686-pc-linux-gnu/bin/../lib/gcc/nios2-elf/4.1.2/../../../../nios2-elf/lib/libc.a(lib_a-dtoa.o)
 .comment       0x00000000       0x27 /OPT/altera/12.1/nios2eds/bin/gnu/H-i686-pc-linux-gnu/bin/../lib/gcc/nios2-elf/4.1.2/../../../../nios2-elf/lib/libc.a(lib_a-fflush.o)
 .comment       0x00000000       0x27 /OPT/altera/12.1/nios2eds/bin/gnu/H-i686-pc-linux-gnu/bin/../lib/gcc/nios2-elf/4.1.2/../../../../nios2-elf/lib/libc.a(lib_a-findfp.o)
 .comment       0x00000000       0x27 /OPT/altera/12.1/nios2eds/bin/gnu/H-i686-pc-linux-gnu/bin/../lib/gcc/nios2-elf/4.1.2/../../../../nios2-elf/lib/libc.a(lib_a-freer.o)
 .comment       0x00000000       0x27 /OPT/altera/12.1/nios2eds/bin/gnu/H-i686-pc-linux-gnu/bin/../lib/gcc/nios2-elf/4.1.2/../../../../nios2-elf/lib/libc.a(lib_a-fvwrite.o)
 .comment       0x00000000       0x27 /OPT/altera/12.1/nios2eds/bin/gnu/H-i686-pc-linux-gnu/bin/../lib/gcc/nios2-elf/4.1.2/../../../../nios2-elf/lib/libc.a(lib_a-fwalk.o)
 .comment       0x00000000       0x27 /OPT/altera/12.1/nios2eds/bin/gnu/H-i686-pc-linux-gnu/bin/../lib/gcc/nios2-elf/4.1.2/../../../../nios2-elf/lib/libc.a(lib_a-gettimeofdayr.o)
 .comment       0x00000000       0x27 /OPT/altera/12.1/nios2eds/bin/gnu/H-i686-pc-linux-gnu/bin/../lib/gcc/nios2-elf/4.1.2/../../../../nios2-elf/lib/libc.a(lib_a-gettzinfo.o)
 .comment       0x00000000       0x27 /OPT/altera/12.1/nios2eds/bin/gnu/H-i686-pc-linux-gnu/bin/../lib/gcc/nios2-elf/4.1.2/../../../../nios2-elf/lib/libc.a(lib_a-impure.o)
 .comment       0x00000000       0x27 /OPT/altera/12.1/nios2eds/bin/gnu/H-i686-pc-linux-gnu/bin/../lib/gcc/nios2-elf/4.1.2/../../../../nios2-elf/lib/libc.a(lib_a-int_errno.o)
 .comment       0x00000000       0x27 /OPT/altera/12.1/nios2eds/bin/gnu/H-i686-pc-linux-gnu/bin/../lib/gcc/nios2-elf/4.1.2/../../../../nios2-elf/lib/libc.a(lib_a-locale.o)
 .comment       0x00000000       0x27 /OPT/altera/12.1/nios2eds/bin/gnu/H-i686-pc-linux-gnu/bin/../lib/gcc/nios2-elf/4.1.2/../../../../nios2-elf/lib/libc.a(lib_a-makebuf.o)
 .comment       0x00000000       0x27 /OPT/altera/12.1/nios2eds/bin/gnu/H-i686-pc-linux-gnu/bin/../lib/gcc/nios2-elf/4.1.2/../../../../nios2-elf/lib/libc.a(lib_a-memchr.o)
 .comment       0x00000000       0x27 /OPT/altera/12.1/nios2eds/bin/gnu/H-i686-pc-linux-gnu/bin/../lib/gcc/nios2-elf/4.1.2/../../../../nios2-elf/lib/libc.a(lib_a-memcpy.o)
 .comment       0x00000000       0x27 /OPT/altera/12.1/nios2eds/bin/gnu/H-i686-pc-linux-gnu/bin/../lib/gcc/nios2-elf/4.1.2/../../../../nios2-elf/lib/libc.a(lib_a-memmove.o)
 .comment       0x00000000       0x27 /OPT/altera/12.1/nios2eds/bin/gnu/H-i686-pc-linux-gnu/bin/../lib/gcc/nios2-elf/4.1.2/../../../../nios2-elf/lib/libc.a(lib_a-memset.o)
 .comment       0x00000000       0x27 /OPT/altera/12.1/nios2eds/bin/gnu/H-i686-pc-linux-gnu/bin/../lib/gcc/nios2-elf/4.1.2/../../../../nios2-elf/lib/libc.a(lib_a-mprec.o)
 .comment       0x00000000       0x27 /OPT/altera/12.1/nios2eds/bin/gnu/H-i686-pc-linux-gnu/bin/../lib/gcc/nios2-elf/4.1.2/../../../../nios2-elf/lib/libc.a(lib_a-reallocr.o)
 .comment       0x00000000       0x27 /OPT/altera/12.1/nios2eds/bin/gnu/H-i686-pc-linux-gnu/bin/../lib/gcc/nios2-elf/4.1.2/../../../../nios2-elf/lib/libc.a(lib_a-s_isinfd.o)
 .comment       0x00000000       0x27 /OPT/altera/12.1/nios2eds/bin/gnu/H-i686-pc-linux-gnu/bin/../lib/gcc/nios2-elf/4.1.2/../../../../nios2-elf/lib/libc.a(lib_a-s_isnand.o)
 .comment       0x00000000       0x27 /OPT/altera/12.1/nios2eds/bin/gnu/H-i686-pc-linux-gnu/bin/../lib/gcc/nios2-elf/4.1.2/../../../../nios2-elf/lib/libc.a(lib_a-sprintf.o)
 .comment       0x00000000       0x27 /OPT/altera/12.1/nios2eds/bin/gnu/H-i686-pc-linux-gnu/bin/../lib/gcc/nios2-elf/4.1.2/../../../../nios2-elf/lib/libc.a(lib_a-stdio.o)
 .comment       0x00000000       0x27 /OPT/altera/12.1/nios2eds/bin/gnu/H-i686-pc-linux-gnu/bin/../lib/gcc/nios2-elf/4.1.2/../../../../nios2-elf/lib/libc.a(lib_a-strcmp.o)
 .comment       0x00000000       0x27 /OPT/altera/12.1/nios2eds/bin/gnu/H-i686-pc-linux-gnu/bin/../lib/gcc/nios2-elf/4.1.2/../../../../nios2-elf/lib/libc.a(lib_a-writer.o)
 .comment       0x00000000       0x27 /OPT/altera/12.1/nios2eds/bin/gnu/H-i686-pc-linux-gnu/bin/../lib/gcc/nios2-elf/4.1.2/../../../../nios2-elf/lib/libc.a(lib_a-callocr.o)
 .comment       0x00000000       0x27 /OPT/altera/12.1/nios2eds/bin/gnu/H-i686-pc-linux-gnu/bin/../lib/gcc/nios2-elf/4.1.2/../../../../nios2-elf/lib/libc.a(lib_a-closer.o)
 .comment       0x00000000       0x27 /OPT/altera/12.1/nios2eds/bin/gnu/H-i686-pc-linux-gnu/bin/../lib/gcc/nios2-elf/4.1.2/../../../../nios2-elf/lib/libc.a(lib_a-fclose.o)
 .comment       0x00000000       0x27 /OPT/altera/12.1/nios2eds/bin/gnu/H-i686-pc-linux-gnu/bin/../lib/gcc/nios2-elf/4.1.2/../../../../nios2-elf/lib/libc.a(lib_a-fstatr.o)
 .comment       0x00000000       0x27 /OPT/altera/12.1/nios2eds/bin/gnu/H-i686-pc-linux-gnu/bin/../lib/gcc/nios2-elf/4.1.2/../../../../nios2-elf/lib/libc.a(lib_a-isattyr.o)
 .comment       0x00000000       0x27 /OPT/altera/12.1/nios2eds/bin/gnu/H-i686-pc-linux-gnu/bin/../lib/gcc/nios2-elf/4.1.2/../../../../nios2-elf/lib/libc.a(lib_a-lseekr.o)
 .comment       0x00000000       0x27 /OPT/altera/12.1/nios2eds/bin/gnu/H-i686-pc-linux-gnu/bin/../lib/gcc/nios2-elf/4.1.2/../../../../nios2-elf/lib/libc.a(lib_a-readr.o)
 .comment       0x00000000       0x27 /OPT/altera/12.1/nios2eds/bin/gnu/H-i686-pc-linux-gnu/bin/../lib/gcc/nios2-elf/4.1.2/libgcc.a(_udivdi3.o)
 .comment       0x00000000       0x27 /OPT/altera/12.1/nios2eds/bin/gnu/H-i686-pc-linux-gnu/bin/../lib/gcc/nios2-elf/4.1.2/libgcc.a(_umoddi3.o)
 .comment       0x00000000       0x27 /OPT/altera/12.1/nios2eds/bin/gnu/H-i686-pc-linux-gnu/bin/../lib/gcc/nios2-elf/4.1.2/libgcc.a(_addsub_df.o)
 .comment       0x00000000       0x27 /OPT/altera/12.1/nios2eds/bin/gnu/H-i686-pc-linux-gnu/bin/../lib/gcc/nios2-elf/4.1.2/libgcc.a(_mul_df.o)
 .comment       0x00000000       0x27 /OPT/altera/12.1/nios2eds/bin/gnu/H-i686-pc-linux-gnu/bin/../lib/gcc/nios2-elf/4.1.2/libgcc.a(_div_df.o)
 .comment       0x00000000       0x27 /OPT/altera/12.1/nios2eds/bin/gnu/H-i686-pc-linux-gnu/bin/../lib/gcc/nios2-elf/4.1.2/libgcc.a(_eq_df.o)
 .comment       0x00000000       0x27 /OPT/altera/12.1/nios2eds/bin/gnu/H-i686-pc-linux-gnu/bin/../lib/gcc/nios2-elf/4.1.2/libgcc.a(_ne_df.o)
 .comment       0x00000000       0x27 /OPT/altera/12.1/nios2eds/bin/gnu/H-i686-pc-linux-gnu/bin/../lib/gcc/nios2-elf/4.1.2/libgcc.a(_gt_df.o)
 .comment       0x00000000       0x27 /OPT/altera/12.1/nios2eds/bin/gnu/H-i686-pc-linux-gnu/bin/../lib/gcc/nios2-elf/4.1.2/libgcc.a(_ge_df.o)
 .comment       0x00000000       0x27 /OPT/altera/12.1/nios2eds/bin/gnu/H-i686-pc-linux-gnu/bin/../lib/gcc/nios2-elf/4.1.2/libgcc.a(_lt_df.o)
 .comment       0x00000000       0x27 /OPT/altera/12.1/nios2eds/bin/gnu/H-i686-pc-linux-gnu/bin/../lib/gcc/nios2-elf/4.1.2/libgcc.a(_si_to_df.o)
 .comment       0x00000000       0x27 /OPT/altera/12.1/nios2eds/bin/gnu/H-i686-pc-linux-gnu/bin/../lib/gcc/nios2-elf/4.1.2/libgcc.a(_df_to_si.o)
 .comment       0x00000000       0x27 /OPT/altera/12.1/nios2eds/bin/gnu/H-i686-pc-linux-gnu/bin/../lib/gcc/nios2-elf/4.1.2/libgcc.a(_thenan_df.o)
 .comment       0x00000000       0x27 /OPT/altera/12.1/nios2eds/bin/gnu/H-i686-pc-linux-gnu/bin/../lib/gcc/nios2-elf/4.1.2/libgcc.a(_usi_to_df.o)
 .comment       0x00000000       0x27 /OPT/altera/12.1/nios2eds/bin/gnu/H-i686-pc-linux-gnu/bin/../lib/gcc/nios2-elf/4.1.2/libgcc.a(lib2-divmod.o)
 .comment       0x00000000       0x27 /OPT/altera/12.1/nios2eds/bin/gnu/H-i686-pc-linux-gnu/bin/../lib/gcc/nios2-elf/4.1.2/libgcc.a(_muldi3.o)
 .comment       0x00000000       0x27 /OPT/altera/12.1/nios2eds/bin/gnu/H-i686-pc-linux-gnu/bin/../lib/gcc/nios2-elf/4.1.2/libgcc.a(_clz.o)
 .comment       0x00000000       0x27 /OPT/altera/12.1/nios2eds/bin/gnu/H-i686-pc-linux-gnu/bin/../lib/gcc/nios2-elf/4.1.2/libgcc.a(_clzsi2.o)
 .comment       0x00000000       0x27 /OPT/altera/12.1/nios2eds/bin/gnu/H-i686-pc-linux-gnu/bin/../lib/gcc/nios2-elf/4.1.2/libgcc.a(_pack_df.o)
 .comment       0x00000000       0x27 /OPT/altera/12.1/nios2eds/bin/gnu/H-i686-pc-linux-gnu/bin/../lib/gcc/nios2-elf/4.1.2/libgcc.a(_unpack_df.o)
 .comment       0x00000000       0x27 /OPT/altera/12.1/nios2eds/bin/gnu/H-i686-pc-linux-gnu/bin/../lib/gcc/nios2-elf/4.1.2/libgcc.a(_fpcmp_parts_df.o)
 .comment       0x00000000       0x27 ../vga_bsp//libucosii_bsp.a(alt_close.o)
 .comment       0x00000000       0x27 ../vga_bsp//libucosii_bsp.a(alt_dev.o)
 .comment       0x00000000       0x27 ../vga_bsp//libucosii_bsp.a(alt_errno.o)
 .comment       0x00000000       0x27 ../vga_bsp//libucosii_bsp.a(alt_fstat.o)
 .comment       0x00000000       0x27 ../vga_bsp//libucosii_bsp.a(alt_gettod.o)
 .comment       0x00000000       0x27 ../vga_bsp//libucosii_bsp.a(alt_isatty.o)
 .comment       0x00000000       0x27 ../vga_bsp//libucosii_bsp.a(alt_load.o)
 .comment       0x00000000       0x27 ../vga_bsp//libucosii_bsp.a(alt_lseek.o)
 .comment       0x00000000       0x27 ../vga_bsp//libucosii_bsp.a(alt_main.o)
 .comment       0x00000000       0x27 ../vga_bsp//libucosii_bsp.a(alt_read.o)
 .comment       0x00000000       0x27 ../vga_bsp//libucosii_bsp.a(alt_release_fd.o)
 .comment       0x00000000       0x27 ../vga_bsp//libucosii_bsp.a(alt_sbrk.o)
 .comment       0x00000000       0x27 ../vga_bsp//libucosii_bsp.a(alt_tick.o)
 .comment       0x00000000       0x27 ../vga_bsp//libucosii_bsp.a(alt_write.o)
 .comment       0x00000000       0x27 ../vga_bsp//libucosii_bsp.a(alt_env_lock.o)
 .comment       0x00000000       0x27 ../vga_bsp//libucosii_bsp.a(alt_malloc_lock.o)
 .comment       0x00000000       0x27 ../vga_bsp//libucosii_bsp.a(os_core.o)
 .comment       0x00000000       0x27 ../vga_bsp//libucosii_bsp.a(os_dbg.o)
 .comment       0x00000000       0x27 ../vga_bsp//libucosii_bsp.a(os_flag.o)
 .comment       0x00000000       0x27 ../vga_bsp//libucosii_bsp.a(os_mem.o)
 .comment       0x00000000       0x27 ../vga_bsp//libucosii_bsp.a(os_q.o)
 .comment       0x00000000       0x27 ../vga_bsp//libucosii_bsp.a(os_sem.o)
 .comment       0x00000000       0x27 ../vga_bsp//libucosii_bsp.a(os_task.o)
 .comment       0x00000000       0x27 ../vga_bsp//libucosii_bsp.a(os_time.o)
 .comment       0x00000000       0x27 ../vga_bsp//libucosii_bsp.a(alt_sys_init.o)
 .comment       0x00000000       0x27 ../vga_bsp//libucosii_bsp.a(altera_avalon_jtag_uart_fd.o)
 .comment       0x00000000       0x27 ../vga_bsp//libucosii_bsp.a(altera_avalon_jtag_uart_init.o)
 .comment       0x00000000       0x27 ../vga_bsp//libucosii_bsp.a(altera_avalon_jtag_uart_ioctl.o)
 .comment       0x00000000       0x27 ../vga_bsp//libucosii_bsp.a(altera_avalon_jtag_uart_read.o)
 .comment       0x00000000       0x27 ../vga_bsp//libucosii_bsp.a(altera_avalon_jtag_uart_write.o)
 .comment       0x00000000       0x27 ../vga_bsp//libucosii_bsp.a(altera_avalon_timer_sc.o)
 .comment       0x00000000       0x27 ../vga_bsp//libucosii_bsp.a(altera_up_avalon_character_lcd.o)
 .comment       0x00000000       0x27 ../vga_bsp//libucosii_bsp.a(altera_up_avalon_video_pixel_buffer_dma.o)
 .comment       0x00000000       0x27 ../vga_bsp//libucosii_bsp.a(altera_up_sd_card_avalon_interface.o)
 .comment       0x00000000       0x27 ../vga_bsp//libucosii_bsp.a(alt_alarm_start.o)
 .comment       0x00000000       0x27 ../vga_bsp//libucosii_bsp.a(alt_dcache_flush_all.o)
 .comment       0x00000000       0x27 ../vga_bsp//libucosii_bsp.a(alt_dev_llist_insert.o)
 .comment       0x00000000       0x27 ../vga_bsp//libucosii_bsp.a(alt_do_ctors.o)
 .comment       0x00000000       0x27 ../vga_bsp//libucosii_bsp.a(alt_do_dtors.o)
 .comment       0x00000000       0x27 ../vga_bsp//libucosii_bsp.a(alt_find_dev.o)
 .comment       0x00000000       0x27 ../vga_bsp//libucosii_bsp.a(alt_icache_flush_all.o)
 .comment       0x00000000       0x27 ../vga_bsp//libucosii_bsp.a(alt_iic.o)
 .comment       0x00000000       0x27 ../vga_bsp//libucosii_bsp.a(alt_iic_isr_register.o)
 .comment       0x00000000       0x27 ../vga_bsp//libucosii_bsp.a(alt_io_redirect.o)
 .comment       0x00000000       0x27 ../vga_bsp//libucosii_bsp.a(alt_irq_handler.o)
 .comment       0x00000000       0x27 ../vga_bsp//libucosii_bsp.a(alt_irq_vars.o)
 .comment       0x00000000       0x27 ../vga_bsp//libucosii_bsp.a(alt_open.o)
 .comment       0x00000000       0x27 ../vga_bsp//libucosii_bsp.a(altera_nios2_qsys_irq.o)
 .comment       0x00000000       0x27 ../vga_bsp//libucosii_bsp.a(os_cpu_c.o)
 .comment       0x00000000       0x27 ../vga_bsp//libucosii_bsp.a(alt_find_file.o)
 .comment       0x00000000       0x27 ../vga_bsp//libucosii_bsp.a(alt_get_fd.o)
 .comment       0x00000000       0x27 ../vga_bsp//libucosii_bsp.a(alt_icache_flush.o)
 .comment       0x00000000       0x27 /OPT/altera/12.1/nios2eds/bin/gnu/H-i686-pc-linux-gnu/bin/../lib/gcc/nios2-elf/4.1.2/../../../../nios2-elf/lib/libc.a(lib_a-atexit.o)
 .comment       0x00000000       0x27 /OPT/altera/12.1/nios2eds/bin/gnu/H-i686-pc-linux-gnu/bin/../lib/gcc/nios2-elf/4.1.2/../../../../nios2-elf/lib/libc.a(lib_a-exit.o)
 .comment       0x00000000       0x27 /OPT/altera/12.1/nios2eds/bin/gnu/H-i686-pc-linux-gnu/bin/../lib/gcc/nios2-elf/4.1.2/../../../../nios2-elf/lib/libc.a(lib_a-memcmp.o)
 .comment       0x00000000       0x27 /OPT/altera/12.1/nios2eds/bin/gnu/H-i686-pc-linux-gnu/bin/../lib/gcc/nios2-elf/4.1.2/../../../../nios2-elf/lib/libc.a(lib_a-__atexit.o)
 .comment       0x00000000       0x27 /OPT/altera/12.1/nios2eds/bin/gnu/H-i686-pc-linux-gnu/bin/../lib/gcc/nios2-elf/4.1.2/../../../../nios2-elf/lib/libc.a(lib_a-__call_atexit.o)
 .comment       0x00000000       0x27 ../vga_bsp//libucosii_bsp.a(alt_exit.o)

.debug
 *(.debug)

.line
 *(.line)

.debug_srcinfo
 *(.debug_srcinfo)

.debug_sfnames
 *(.debug_sfnames)

.debug_aranges  0x00000000      0xfd8
 *(.debug_aranges)
 .debug_aranges
                0x00000000       0x28 ../vga_bsp//obj/HAL/src/crt0.o
 .debug_aranges
                0x00000028       0x20 obj/default/hello_ucosii.o
 .debug_aranges
                0x00000048       0x20 /OPT/altera/12.1/nios2eds/bin/gnu/H-i686-pc-linux-gnu/bin/../lib/gcc/nios2-elf/4.1.2/../../../../nios2-elf/lib/libc.a(lib_a-ctime.o)
 .debug_aranges
                0x00000068       0x20 /OPT/altera/12.1/nios2eds/bin/gnu/H-i686-pc-linux-gnu/bin/../lib/gcc/nios2-elf/4.1.2/../../../../nios2-elf/lib/libc.a(lib_a-lcltime.o)
 .debug_aranges
                0x00000088       0x20 /OPT/altera/12.1/nios2eds/bin/gnu/H-i686-pc-linux-gnu/bin/../lib/gcc/nios2-elf/4.1.2/../../../../nios2-elf/lib/libc.a(lib_a-lcltime_r.o)
 .debug_aranges
                0x000000a8       0x20 /OPT/altera/12.1/nios2eds/bin/gnu/H-i686-pc-linux-gnu/bin/../lib/gcc/nios2-elf/4.1.2/../../../../nios2-elf/lib/libc.a(lib_a-malloc.o)
 .debug_aranges
                0x000000c8       0x20 /OPT/altera/12.1/nios2eds/bin/gnu/H-i686-pc-linux-gnu/bin/../lib/gcc/nios2-elf/4.1.2/../../../../nios2-elf/lib/libc.a(lib_a-mallocr.o)
 .debug_aranges
                0x000000e8       0x20 /OPT/altera/12.1/nios2eds/bin/gnu/H-i686-pc-linux-gnu/bin/../lib/gcc/nios2-elf/4.1.2/../../../../nios2-elf/lib/libc.a(lib_a-mktm_r.o)
 .debug_aranges
                0x00000108       0x20 /OPT/altera/12.1/nios2eds/bin/gnu/H-i686-pc-linux-gnu/bin/../lib/gcc/nios2-elf/4.1.2/../../../../nios2-elf/lib/libc.a(lib_a-printf.o)
 .debug_aranges
                0x00000128       0x20 /OPT/altera/12.1/nios2eds/bin/gnu/H-i686-pc-linux-gnu/bin/../lib/gcc/nios2-elf/4.1.2/../../../../nios2-elf/lib/libc.a(lib_a-puts.o)
 .debug_aranges
                0x00000148       0x20 /OPT/altera/12.1/nios2eds/bin/gnu/H-i686-pc-linux-gnu/bin/../lib/gcc/nios2-elf/4.1.2/../../../../nios2-elf/lib/libc.a(lib_a-sbrkr.o)
 .debug_aranges
                0x00000168       0x20 /OPT/altera/12.1/nios2eds/bin/gnu/H-i686-pc-linux-gnu/bin/../lib/gcc/nios2-elf/4.1.2/../../../../nios2-elf/lib/libc.a(lib_a-strlen.o)
 .debug_aranges
                0x00000188       0x20 /OPT/altera/12.1/nios2eds/bin/gnu/H-i686-pc-linux-gnu/bin/../lib/gcc/nios2-elf/4.1.2/../../../../nios2-elf/lib/libc.a(lib_a-time.o)
 .debug_aranges
                0x000001a8       0x20 /OPT/altera/12.1/nios2eds/bin/gnu/H-i686-pc-linux-gnu/bin/../lib/gcc/nios2-elf/4.1.2/../../../../nios2-elf/lib/libc.a(lib_a-tzlock.o)
 .debug_aranges
                0x000001c8       0x20 /OPT/altera/12.1/nios2eds/bin/gnu/H-i686-pc-linux-gnu/bin/../lib/gcc/nios2-elf/4.1.2/../../../../nios2-elf/lib/libc.a(lib_a-vfprintf.o)
 .debug_aranges
                0x000001e8       0x20 /OPT/altera/12.1/nios2eds/bin/gnu/H-i686-pc-linux-gnu/bin/../lib/gcc/nios2-elf/4.1.2/../../../../nios2-elf/lib/libc.a(lib_a-wsetup.o)
 .debug_aranges
                0x00000208       0x20 /OPT/altera/12.1/nios2eds/bin/gnu/H-i686-pc-linux-gnu/bin/../lib/gcc/nios2-elf/4.1.2/../../../../nios2-elf/lib/libc.a(lib_a-asctime.o)
 .debug_aranges
                0x00000228       0x20 /OPT/altera/12.1/nios2eds/bin/gnu/H-i686-pc-linux-gnu/bin/../lib/gcc/nios2-elf/4.1.2/../../../../nios2-elf/lib/libc.a(lib_a-asctime_r.o)
 .debug_aranges
                0x00000248       0x20 /OPT/altera/12.1/nios2eds/bin/gnu/H-i686-pc-linux-gnu/bin/../lib/gcc/nios2-elf/4.1.2/../../../../nios2-elf/lib/libc.a(lib_a-dtoa.o)
 .debug_aranges
                0x00000268       0x20 /OPT/altera/12.1/nios2eds/bin/gnu/H-i686-pc-linux-gnu/bin/../lib/gcc/nios2-elf/4.1.2/../../../../nios2-elf/lib/libc.a(lib_a-fflush.o)
 .debug_aranges
                0x00000288       0x20 /OPT/altera/12.1/nios2eds/bin/gnu/H-i686-pc-linux-gnu/bin/../lib/gcc/nios2-elf/4.1.2/../../../../nios2-elf/lib/libc.a(lib_a-findfp.o)
 .debug_aranges
                0x000002a8       0x20 /OPT/altera/12.1/nios2eds/bin/gnu/H-i686-pc-linux-gnu/bin/../lib/gcc/nios2-elf/4.1.2/../../../../nios2-elf/lib/libc.a(lib_a-freer.o)
 .debug_aranges
                0x000002c8       0x20 /OPT/altera/12.1/nios2eds/bin/gnu/H-i686-pc-linux-gnu/bin/../lib/gcc/nios2-elf/4.1.2/../../../../nios2-elf/lib/libc.a(lib_a-fvwrite.o)
 .debug_aranges
                0x000002e8       0x20 /OPT/altera/12.1/nios2eds/bin/gnu/H-i686-pc-linux-gnu/bin/../lib/gcc/nios2-elf/4.1.2/../../../../nios2-elf/lib/libc.a(lib_a-fwalk.o)
 .debug_aranges
                0x00000308       0x20 /OPT/altera/12.1/nios2eds/bin/gnu/H-i686-pc-linux-gnu/bin/../lib/gcc/nios2-elf/4.1.2/../../../../nios2-elf/lib/libc.a(lib_a-gettimeofdayr.o)
 .debug_aranges
                0x00000328       0x20 /OPT/altera/12.1/nios2eds/bin/gnu/H-i686-pc-linux-gnu/bin/../lib/gcc/nios2-elf/4.1.2/../../../../nios2-elf/lib/libc.a(lib_a-gettzinfo.o)
 .debug_aranges
                0x00000348       0x20 /OPT/altera/12.1/nios2eds/bin/gnu/H-i686-pc-linux-gnu/bin/../lib/gcc/nios2-elf/4.1.2/../../../../nios2-elf/lib/libc.a(lib_a-locale.o)
 .debug_aranges
                0x00000368       0x20 /OPT/altera/12.1/nios2eds/bin/gnu/H-i686-pc-linux-gnu/bin/../lib/gcc/nios2-elf/4.1.2/../../../../nios2-elf/lib/libc.a(lib_a-makebuf.o)
 .debug_aranges
                0x00000388       0x20 /OPT/altera/12.1/nios2eds/bin/gnu/H-i686-pc-linux-gnu/bin/../lib/gcc/nios2-elf/4.1.2/../../../../nios2-elf/lib/libc.a(lib_a-memchr.o)
 .debug_aranges
                0x000003a8       0x20 /OPT/altera/12.1/nios2eds/bin/gnu/H-i686-pc-linux-gnu/bin/../lib/gcc/nios2-elf/4.1.2/../../../../nios2-elf/lib/libc.a(lib_a-memcpy.o)
 .debug_aranges
                0x000003c8       0x20 /OPT/altera/12.1/nios2eds/bin/gnu/H-i686-pc-linux-gnu/bin/../lib/gcc/nios2-elf/4.1.2/../../../../nios2-elf/lib/libc.a(lib_a-memmove.o)
 .debug_aranges
                0x000003e8       0x20 /OPT/altera/12.1/nios2eds/bin/gnu/H-i686-pc-linux-gnu/bin/../lib/gcc/nios2-elf/4.1.2/../../../../nios2-elf/lib/libc.a(lib_a-memset.o)
 .debug_aranges
                0x00000408       0x20 /OPT/altera/12.1/nios2eds/bin/gnu/H-i686-pc-linux-gnu/bin/../lib/gcc/nios2-elf/4.1.2/../../../../nios2-elf/lib/libc.a(lib_a-mprec.o)
 .debug_aranges
                0x00000428       0x20 /OPT/altera/12.1/nios2eds/bin/gnu/H-i686-pc-linux-gnu/bin/../lib/gcc/nios2-elf/4.1.2/../../../../nios2-elf/lib/libc.a(lib_a-reallocr.o)
 .debug_aranges
                0x00000448       0x20 /OPT/altera/12.1/nios2eds/bin/gnu/H-i686-pc-linux-gnu/bin/../lib/gcc/nios2-elf/4.1.2/../../../../nios2-elf/lib/libc.a(lib_a-s_isinfd.o)
 .debug_aranges
                0x00000468       0x20 /OPT/altera/12.1/nios2eds/bin/gnu/H-i686-pc-linux-gnu/bin/../lib/gcc/nios2-elf/4.1.2/../../../../nios2-elf/lib/libc.a(lib_a-s_isnand.o)
 .debug_aranges
                0x00000488       0x20 /OPT/altera/12.1/nios2eds/bin/gnu/H-i686-pc-linux-gnu/bin/../lib/gcc/nios2-elf/4.1.2/../../../../nios2-elf/lib/libc.a(lib_a-sprintf.o)
 .debug_aranges
                0x000004a8       0x20 /OPT/altera/12.1/nios2eds/bin/gnu/H-i686-pc-linux-gnu/bin/../lib/gcc/nios2-elf/4.1.2/../../../../nios2-elf/lib/libc.a(lib_a-stdio.o)
 .debug_aranges
                0x000004c8       0x20 /OPT/altera/12.1/nios2eds/bin/gnu/H-i686-pc-linux-gnu/bin/../lib/gcc/nios2-elf/4.1.2/../../../../nios2-elf/lib/libc.a(lib_a-strcmp.o)
 .debug_aranges
                0x000004e8       0x20 /OPT/altera/12.1/nios2eds/bin/gnu/H-i686-pc-linux-gnu/bin/../lib/gcc/nios2-elf/4.1.2/../../../../nios2-elf/lib/libc.a(lib_a-writer.o)
 .debug_aranges
                0x00000508       0x20 /OPT/altera/12.1/nios2eds/bin/gnu/H-i686-pc-linux-gnu/bin/../lib/gcc/nios2-elf/4.1.2/../../../../nios2-elf/lib/libc.a(lib_a-callocr.o)
 .debug_aranges
                0x00000528       0x20 /OPT/altera/12.1/nios2eds/bin/gnu/H-i686-pc-linux-gnu/bin/../lib/gcc/nios2-elf/4.1.2/../../../../nios2-elf/lib/libc.a(lib_a-closer.o)
 .debug_aranges
                0x00000548       0x20 /OPT/altera/12.1/nios2eds/bin/gnu/H-i686-pc-linux-gnu/bin/../lib/gcc/nios2-elf/4.1.2/../../../../nios2-elf/lib/libc.a(lib_a-fclose.o)
 .debug_aranges
                0x00000568       0x20 /OPT/altera/12.1/nios2eds/bin/gnu/H-i686-pc-linux-gnu/bin/../lib/gcc/nios2-elf/4.1.2/../../../../nios2-elf/lib/libc.a(lib_a-fstatr.o)
 .debug_aranges
                0x00000588       0x20 /OPT/altera/12.1/nios2eds/bin/gnu/H-i686-pc-linux-gnu/bin/../lib/gcc/nios2-elf/4.1.2/../../../../nios2-elf/lib/libc.a(lib_a-isattyr.o)
 .debug_aranges
                0x000005a8       0x20 /OPT/altera/12.1/nios2eds/bin/gnu/H-i686-pc-linux-gnu/bin/../lib/gcc/nios2-elf/4.1.2/../../../../nios2-elf/lib/libc.a(lib_a-lseekr.o)
 .debug_aranges
                0x000005c8       0x20 /OPT/altera/12.1/nios2eds/bin/gnu/H-i686-pc-linux-gnu/bin/../lib/gcc/nios2-elf/4.1.2/../../../../nios2-elf/lib/libc.a(lib_a-readr.o)
 .debug_aranges
                0x000005e8       0x20 /OPT/altera/12.1/nios2eds/bin/gnu/H-i686-pc-linux-gnu/bin/../lib/gcc/nios2-elf/4.1.2/libgcc.a(_udivdi3.o)
 .debug_aranges
                0x00000608       0x20 /OPT/altera/12.1/nios2eds/bin/gnu/H-i686-pc-linux-gnu/bin/../lib/gcc/nios2-elf/4.1.2/libgcc.a(_umoddi3.o)
 .debug_aranges
                0x00000628       0x20 /OPT/altera/12.1/nios2eds/bin/gnu/H-i686-pc-linux-gnu/bin/../lib/gcc/nios2-elf/4.1.2/libgcc.a(_addsub_df.o)
 .debug_aranges
                0x00000648       0x20 /OPT/altera/12.1/nios2eds/bin/gnu/H-i686-pc-linux-gnu/bin/../lib/gcc/nios2-elf/4.1.2/libgcc.a(_mul_df.o)
 .debug_aranges
                0x00000668       0x20 /OPT/altera/12.1/nios2eds/bin/gnu/H-i686-pc-linux-gnu/bin/../lib/gcc/nios2-elf/4.1.2/libgcc.a(_div_df.o)
 .debug_aranges
                0x00000688       0x20 /OPT/altera/12.1/nios2eds/bin/gnu/H-i686-pc-linux-gnu/bin/../lib/gcc/nios2-elf/4.1.2/libgcc.a(_eq_df.o)
 .debug_aranges
                0x000006a8       0x20 /OPT/altera/12.1/nios2eds/bin/gnu/H-i686-pc-linux-gnu/bin/../lib/gcc/nios2-elf/4.1.2/libgcc.a(_ne_df.o)
 .debug_aranges
                0x000006c8       0x20 /OPT/altera/12.1/nios2eds/bin/gnu/H-i686-pc-linux-gnu/bin/../lib/gcc/nios2-elf/4.1.2/libgcc.a(_gt_df.o)
 .debug_aranges
                0x000006e8       0x20 /OPT/altera/12.1/nios2eds/bin/gnu/H-i686-pc-linux-gnu/bin/../lib/gcc/nios2-elf/4.1.2/libgcc.a(_ge_df.o)
 .debug_aranges
                0x00000708       0x20 /OPT/altera/12.1/nios2eds/bin/gnu/H-i686-pc-linux-gnu/bin/../lib/gcc/nios2-elf/4.1.2/libgcc.a(_lt_df.o)
 .debug_aranges
                0x00000728       0x20 /OPT/altera/12.1/nios2eds/bin/gnu/H-i686-pc-linux-gnu/bin/../lib/gcc/nios2-elf/4.1.2/libgcc.a(_si_to_df.o)
 .debug_aranges
                0x00000748       0x20 /OPT/altera/12.1/nios2eds/bin/gnu/H-i686-pc-linux-gnu/bin/../lib/gcc/nios2-elf/4.1.2/libgcc.a(_df_to_si.o)
 .debug_aranges
                0x00000768       0x20 /OPT/altera/12.1/nios2eds/bin/gnu/H-i686-pc-linux-gnu/bin/../lib/gcc/nios2-elf/4.1.2/libgcc.a(_usi_to_df.o)
 .debug_aranges
                0x00000788       0x20 /OPT/altera/12.1/nios2eds/bin/gnu/H-i686-pc-linux-gnu/bin/../lib/gcc/nios2-elf/4.1.2/libgcc.a(lib2-divmod.o)
 .debug_aranges
                0x000007a8       0x20 /OPT/altera/12.1/nios2eds/bin/gnu/H-i686-pc-linux-gnu/bin/../lib/gcc/nios2-elf/4.1.2/libgcc.a(_muldi3.o)
 .debug_aranges
                0x000007c8       0x20 /OPT/altera/12.1/nios2eds/bin/gnu/H-i686-pc-linux-gnu/bin/../lib/gcc/nios2-elf/4.1.2/libgcc.a(_clzsi2.o)
 .debug_aranges
                0x000007e8       0x20 /OPT/altera/12.1/nios2eds/bin/gnu/H-i686-pc-linux-gnu/bin/../lib/gcc/nios2-elf/4.1.2/libgcc.a(_pack_df.o)
 .debug_aranges
                0x00000808       0x20 /OPT/altera/12.1/nios2eds/bin/gnu/H-i686-pc-linux-gnu/bin/../lib/gcc/nios2-elf/4.1.2/libgcc.a(_unpack_df.o)
 .debug_aranges
                0x00000828       0x20 /OPT/altera/12.1/nios2eds/bin/gnu/H-i686-pc-linux-gnu/bin/../lib/gcc/nios2-elf/4.1.2/libgcc.a(_fpcmp_parts_df.o)
 .debug_aranges
                0x00000848       0x20 ../vga_bsp//libucosii_bsp.a(alt_close.o)
 .debug_aranges
                0x00000868       0x20 ../vga_bsp//libucosii_bsp.a(alt_dev.o)
 .debug_aranges
                0x00000888       0x20 ../vga_bsp//libucosii_bsp.a(alt_fstat.o)
 .debug_aranges
                0x000008a8       0x20 ../vga_bsp//libucosii_bsp.a(alt_gettod.o)
 .debug_aranges
                0x000008c8       0x20 ../vga_bsp//libucosii_bsp.a(alt_isatty.o)
 .debug_aranges
                0x000008e8       0x20 ../vga_bsp//libucosii_bsp.a(alt_load.o)
 .debug_aranges
                0x00000908       0x20 ../vga_bsp//libucosii_bsp.a(alt_lseek.o)
 .debug_aranges
                0x00000928       0x20 ../vga_bsp//libucosii_bsp.a(alt_main.o)
 .debug_aranges
                0x00000948       0x20 ../vga_bsp//libucosii_bsp.a(alt_read.o)
 .debug_aranges
                0x00000968       0x20 ../vga_bsp//libucosii_bsp.a(alt_release_fd.o)
 .debug_aranges
                0x00000988       0x20 ../vga_bsp//libucosii_bsp.a(alt_sbrk.o)
 .debug_aranges
                0x000009a8       0x20 ../vga_bsp//libucosii_bsp.a(alt_tick.o)
 .debug_aranges
                0x000009c8       0x20 ../vga_bsp//libucosii_bsp.a(alt_write.o)
 .debug_aranges
                0x000009e8       0x20 ../vga_bsp//libucosii_bsp.a(alt_env_lock.o)
 .debug_aranges
                0x00000a08       0x20 ../vga_bsp//libucosii_bsp.a(alt_malloc_lock.o)
 .debug_aranges
                0x00000a28       0x20 ../vga_bsp//libucosii_bsp.a(os_core.o)
 .debug_aranges
                0x00000a48       0x20 ../vga_bsp//libucosii_bsp.a(os_dbg.o)
 .debug_aranges
                0x00000a68       0x20 ../vga_bsp//libucosii_bsp.a(os_flag.o)
 .debug_aranges
                0x00000a88       0x20 ../vga_bsp//libucosii_bsp.a(os_mem.o)
 .debug_aranges
                0x00000aa8       0x20 ../vga_bsp//libucosii_bsp.a(os_q.o)
 .debug_aranges
                0x00000ac8       0x20 ../vga_bsp//libucosii_bsp.a(os_sem.o)
 .debug_aranges
                0x00000ae8       0x20 ../vga_bsp//libucosii_bsp.a(os_task.o)
 .debug_aranges
                0x00000b08       0x20 ../vga_bsp//libucosii_bsp.a(os_time.o)
 .debug_aranges
                0x00000b28       0x20 ../vga_bsp//libucosii_bsp.a(alt_sys_init.o)
 .debug_aranges
                0x00000b48       0x20 ../vga_bsp//libucosii_bsp.a(altera_avalon_jtag_uart_fd.o)
 .debug_aranges
                0x00000b68       0x20 ../vga_bsp//libucosii_bsp.a(altera_avalon_jtag_uart_init.o)
 .debug_aranges
                0x00000b88       0x20 ../vga_bsp//libucosii_bsp.a(altera_avalon_jtag_uart_ioctl.o)
 .debug_aranges
                0x00000ba8       0x20 ../vga_bsp//libucosii_bsp.a(altera_avalon_jtag_uart_read.o)
 .debug_aranges
                0x00000bc8       0x20 ../vga_bsp//libucosii_bsp.a(altera_avalon_jtag_uart_write.o)
 .debug_aranges
                0x00000be8       0x20 ../vga_bsp//libucosii_bsp.a(altera_avalon_timer_sc.o)
 .debug_aranges
                0x00000c08       0x20 ../vga_bsp//libucosii_bsp.a(altera_up_avalon_character_lcd.o)
 .debug_aranges
                0x00000c28       0x20 ../vga_bsp//libucosii_bsp.a(altera_up_avalon_video_pixel_buffer_dma.o)
 .debug_aranges
                0x00000c48       0x20 ../vga_bsp//libucosii_bsp.a(altera_up_sd_card_avalon_interface.o)
 .debug_aranges
                0x00000c68       0x20 ../vga_bsp//libucosii_bsp.a(alt_alarm_start.o)
 .debug_aranges
                0x00000c88       0x20 ../vga_bsp//libucosii_bsp.a(alt_dcache_flush_all.o)
 .debug_aranges
                0x00000ca8       0x20 ../vga_bsp//libucosii_bsp.a(alt_dev_llist_insert.o)
 .debug_aranges
                0x00000cc8       0x20 ../vga_bsp//libucosii_bsp.a(alt_do_ctors.o)
 .debug_aranges
                0x00000ce8       0x20 ../vga_bsp//libucosii_bsp.a(alt_do_dtors.o)
 .debug_aranges
                0x00000d08       0x20 ../vga_bsp//libucosii_bsp.a(alt_find_dev.o)
 .debug_aranges
                0x00000d28       0x20 ../vga_bsp//libucosii_bsp.a(alt_icache_flush_all.o)
 .debug_aranges
                0x00000d48       0x20 ../vga_bsp//libucosii_bsp.a(alt_iic.o)
 .debug_aranges
                0x00000d68       0x20 ../vga_bsp//libucosii_bsp.a(alt_iic_isr_register.o)
 .debug_aranges
                0x00000d88       0x20 ../vga_bsp//libucosii_bsp.a(alt_io_redirect.o)
 .debug_aranges
                0x00000da8       0x30 ../vga_bsp//libucosii_bsp.a(alt_irq_entry.o)
 .debug_aranges
                0x00000dd8       0x28 ../vga_bsp//libucosii_bsp.a(alt_irq_handler.o)
 .debug_aranges
                0x00000e00       0x20 ../vga_bsp//libucosii_bsp.a(alt_open.o)
 .debug_aranges
                0x00000e20       0x20 ../vga_bsp//libucosii_bsp.a(altera_nios2_qsys_irq.o)
 .debug_aranges
                0x00000e40       0x20 ../vga_bsp//libucosii_bsp.a(os_cpu_a.o)
 .debug_aranges
                0x00000e60       0x20 ../vga_bsp//libucosii_bsp.a(os_cpu_c.o)
 .debug_aranges
                0x00000e80       0x38 ../vga_bsp//libucosii_bsp.a(alt_exception_entry.o)
 .debug_aranges
                0x00000eb8       0x20 ../vga_bsp//libucosii_bsp.a(alt_find_file.o)
 .debug_aranges
                0x00000ed8       0x20 ../vga_bsp//libucosii_bsp.a(alt_get_fd.o)
 .debug_aranges
                0x00000ef8       0x20 ../vga_bsp//libucosii_bsp.a(alt_icache_flush.o)
 .debug_aranges
                0x00000f18       0x20 /OPT/altera/12.1/nios2eds/bin/gnu/H-i686-pc-linux-gnu/bin/../lib/gcc/nios2-elf/4.1.2/../../../../nios2-elf/lib/libc.a(lib_a-atexit.o)
 .debug_aranges
                0x00000f38       0x20 /OPT/altera/12.1/nios2eds/bin/gnu/H-i686-pc-linux-gnu/bin/../lib/gcc/nios2-elf/4.1.2/../../../../nios2-elf/lib/libc.a(lib_a-exit.o)
 .debug_aranges
                0x00000f58       0x20 /OPT/altera/12.1/nios2eds/bin/gnu/H-i686-pc-linux-gnu/bin/../lib/gcc/nios2-elf/4.1.2/../../../../nios2-elf/lib/libc.a(lib_a-memcmp.o)
 .debug_aranges
                0x00000f78       0x20 /OPT/altera/12.1/nios2eds/bin/gnu/H-i686-pc-linux-gnu/bin/../lib/gcc/nios2-elf/4.1.2/../../../../nios2-elf/lib/libc.a(lib_a-__atexit.o)
 .debug_aranges
                0x00000f98       0x20 /OPT/altera/12.1/nios2eds/bin/gnu/H-i686-pc-linux-gnu/bin/../lib/gcc/nios2-elf/4.1.2/../../../../nios2-elf/lib/libc.a(lib_a-__call_atexit.o)
 .debug_aranges
                0x00000fb8       0x20 ../vga_bsp//libucosii_bsp.a(alt_exit.o)

.debug_pubnames
                0x00000000     0x2b70
 *(.debug_pubnames)
 .debug_pubnames
                0x00000000       0x54 obj/default/hello_ucosii.o
 .debug_pubnames
                0x00000054       0x1c /OPT/altera/12.1/nios2eds/bin/gnu/H-i686-pc-linux-gnu/bin/../lib/gcc/nios2-elf/4.1.2/../../../../nios2-elf/lib/libc.a(lib_a-ctime.o)
 .debug_pubnames
                0x00000070       0x20 /OPT/altera/12.1/nios2eds/bin/gnu/H-i686-pc-linux-gnu/bin/../lib/gcc/nios2-elf/4.1.2/../../../../nios2-elf/lib/libc.a(lib_a-lcltime.o)
 .debug_pubnames
                0x00000090       0x22 /OPT/altera/12.1/nios2eds/bin/gnu/H-i686-pc-linux-gnu/bin/../lib/gcc/nios2-elf/4.1.2/../../../../nios2-elf/lib/libc.a(lib_a-lcltime_r.o)
 .debug_pubnames
                0x000000b2       0x26 /OPT/altera/12.1/nios2eds/bin/gnu/H-i686-pc-linux-gnu/bin/../lib/gcc/nios2-elf/4.1.2/../../../../nios2-elf/lib/libc.a(lib_a-malloc.o)
 .debug_pubnames
                0x000000d8       0xce /OPT/altera/12.1/nios2eds/bin/gnu/H-i686-pc-linux-gnu/bin/../lib/gcc/nios2-elf/4.1.2/../../../../nios2-elf/lib/libc.a(lib_a-mallocr.o)
 .debug_pubnames
                0x000001a6       0x32 /OPT/altera/12.1/nios2eds/bin/gnu/H-i686-pc-linux-gnu/bin/../lib/gcc/nios2-elf/4.1.2/../../../../nios2-elf/lib/libc.a(lib_a-mktm_r.o)
 .debug_pubnames
                0x000001d8       0x2b /OPT/altera/12.1/nios2eds/bin/gnu/H-i686-pc-linux-gnu/bin/../lib/gcc/nios2-elf/4.1.2/../../../../nios2-elf/lib/libc.a(lib_a-printf.o)
 .debug_pubnames
                0x00000203       0x27 /OPT/altera/12.1/nios2eds/bin/gnu/H-i686-pc-linux-gnu/bin/../lib/gcc/nios2-elf/4.1.2/../../../../nios2-elf/lib/libc.a(lib_a-puts.o)
 .debug_pubnames
                0x0000022a       0x1e /OPT/altera/12.1/nios2eds/bin/gnu/H-i686-pc-linux-gnu/bin/../lib/gcc/nios2-elf/4.1.2/../../../../nios2-elf/lib/libc.a(lib_a-sbrkr.o)
 .debug_pubnames
                0x00000248       0x1d /OPT/altera/12.1/nios2eds/bin/gnu/H-i686-pc-linux-gnu/bin/../lib/gcc/nios2-elf/4.1.2/../../../../nios2-elf/lib/libc.a(lib_a-strlen.o)
 .debug_pubnames
                0x00000265       0x1b /OPT/altera/12.1/nios2eds/bin/gnu/H-i686-pc-linux-gnu/bin/../lib/gcc/nios2-elf/4.1.2/../../../../nios2-elf/lib/libc.a(lib_a-time.o)
 .debug_pubnames
                0x00000280       0x30 /OPT/altera/12.1/nios2eds/bin/gnu/H-i686-pc-linux-gnu/bin/../lib/gcc/nios2-elf/4.1.2/../../../../nios2-elf/lib/libc.a(lib_a-tzlock.o)
 .debug_pubnames
                0x000002b0       0x3a /OPT/altera/12.1/nios2eds/bin/gnu/H-i686-pc-linux-gnu/bin/../lib/gcc/nios2-elf/4.1.2/../../../../nios2-elf/lib/libc.a(lib_a-tzvars.o)
 .debug_pubnames
                0x000002ea       0x45 /OPT/altera/12.1/nios2eds/bin/gnu/H-i686-pc-linux-gnu/bin/../lib/gcc/nios2-elf/4.1.2/../../../../nios2-elf/lib/libc.a(lib_a-vfprintf.o)
 .debug_pubnames
                0x0000032f       0x22 /OPT/altera/12.1/nios2eds/bin/gnu/H-i686-pc-linux-gnu/bin/../lib/gcc/nios2-elf/4.1.2/../../../../nios2-elf/lib/libc.a(lib_a-wsetup.o)
 .debug_pubnames
                0x00000351       0x1e /OPT/altera/12.1/nios2eds/bin/gnu/H-i686-pc-linux-gnu/bin/../lib/gcc/nios2-elf/4.1.2/../../../../nios2-elf/lib/libc.a(lib_a-asctime.o)
 .debug_pubnames
                0x0000036f       0x20 /OPT/altera/12.1/nios2eds/bin/gnu/H-i686-pc-linux-gnu/bin/../lib/gcc/nios2-elf/4.1.2/../../../../nios2-elf/lib/libc.a(lib_a-asctime_r.o)
 .debug_pubnames
                0x0000038f       0x1e /OPT/altera/12.1/nios2eds/bin/gnu/H-i686-pc-linux-gnu/bin/../lib/gcc/nios2-elf/4.1.2/../../../../nios2-elf/lib/libc.a(lib_a-dtoa.o)
 .debug_pubnames
                0x000003ad       0x2b /OPT/altera/12.1/nios2eds/bin/gnu/H-i686-pc-linux-gnu/bin/../lib/gcc/nios2-elf/4.1.2/../../../../nios2-elf/lib/libc.a(lib_a-fflush.o)
 .debug_pubnames
                0x000003d8       0xdb /OPT/altera/12.1/nios2eds/bin/gnu/H-i686-pc-linux-gnu/bin/../lib/gcc/nios2-elf/4.1.2/../../../../nios2-elf/lib/libc.a(lib_a-findfp.o)
 .debug_pubnames
                0x000004b3       0x31 /OPT/altera/12.1/nios2eds/bin/gnu/H-i686-pc-linux-gnu/bin/../lib/gcc/nios2-elf/4.1.2/../../../../nios2-elf/lib/libc.a(lib_a-freer.o)
 .debug_pubnames
                0x000004e4       0x23 /OPT/altera/12.1/nios2eds/bin/gnu/H-i686-pc-linux-gnu/bin/../lib/gcc/nios2-elf/4.1.2/../../../../nios2-elf/lib/libc.a(lib_a-fvwrite.o)
 .debug_pubnames
                0x00000507       0x2e /OPT/altera/12.1/nios2eds/bin/gnu/H-i686-pc-linux-gnu/bin/../lib/gcc/nios2-elf/4.1.2/../../../../nios2-elf/lib/libc.a(lib_a-fwalk.o)
 .debug_pubnames
                0x00000535       0x26 /OPT/altera/12.1/nios2eds/bin/gnu/H-i686-pc-linux-gnu/bin/../lib/gcc/nios2-elf/4.1.2/../../../../nios2-elf/lib/libc.a(lib_a-gettimeofdayr.o)
 .debug_pubnames
                0x0000055b       0x22 /OPT/altera/12.1/nios2eds/bin/gnu/H-i686-pc-linux-gnu/bin/../lib/gcc/nios2-elf/4.1.2/../../../../nios2-elf/lib/libc.a(lib_a-gettzinfo.o)
 .debug_pubnames
                0x0000057d       0x39 /OPT/altera/12.1/nios2eds/bin/gnu/H-i686-pc-linux-gnu/bin/../lib/gcc/nios2-elf/4.1.2/../../../../nios2-elf/lib/libc.a(lib_a-impure.o)
 .debug_pubnames
                0x000005b6       0x1c /OPT/altera/12.1/nios2eds/bin/gnu/H-i686-pc-linux-gnu/bin/../lib/gcc/nios2-elf/4.1.2/../../../../nios2-elf/lib/libc.a(lib_a-int_errno.o)
 .debug_pubnames
                0x000005d2       0xc3 /OPT/altera/12.1/nios2eds/bin/gnu/H-i686-pc-linux-gnu/bin/../lib/gcc/nios2-elf/4.1.2/../../../../nios2-elf/lib/libc.a(lib_a-locale.o)
 .debug_pubnames
                0x00000695       0x23 /OPT/altera/12.1/nios2eds/bin/gnu/H-i686-pc-linux-gnu/bin/../lib/gcc/nios2-elf/4.1.2/../../../../nios2-elf/lib/libc.a(lib_a-makebuf.o)
 .debug_pubnames
                0x000006b8       0x1d /OPT/altera/12.1/nios2eds/bin/gnu/H-i686-pc-linux-gnu/bin/../lib/gcc/nios2-elf/4.1.2/../../../../nios2-elf/lib/libc.a(lib_a-memchr.o)
 .debug_pubnames
                0x000006d5       0x1d /OPT/altera/12.1/nios2eds/bin/gnu/H-i686-pc-linux-gnu/bin/../lib/gcc/nios2-elf/4.1.2/../../../../nios2-elf/lib/libc.a(lib_a-memcpy.o)
 .debug_pubnames
                0x000006f2       0x1e /OPT/altera/12.1/nios2eds/bin/gnu/H-i686-pc-linux-gnu/bin/../lib/gcc/nios2-elf/4.1.2/../../../../nios2-elf/lib/libc.a(lib_a-memmove.o)
 .debug_pubnames
                0x00000710       0x1d /OPT/altera/12.1/nios2eds/bin/gnu/H-i686-pc-linux-gnu/bin/../lib/gcc/nios2-elf/4.1.2/../../../../nios2-elf/lib/libc.a(lib_a-memset.o)
 .debug_pubnames
                0x0000072d      0x13a /OPT/altera/12.1/nios2eds/bin/gnu/H-i686-pc-linux-gnu/bin/../lib/gcc/nios2-elf/4.1.2/../../../../nios2-elf/lib/libc.a(lib_a-mprec.o)
 .debug_pubnames
                0x00000867       0x21 /OPT/altera/12.1/nios2eds/bin/gnu/H-i686-pc-linux-gnu/bin/../lib/gcc/nios2-elf/4.1.2/../../../../nios2-elf/lib/libc.a(lib_a-reallocr.o)
 .debug_pubnames
                0x00000888       0x1f /OPT/altera/12.1/nios2eds/bin/gnu/H-i686-pc-linux-gnu/bin/../lib/gcc/nios2-elf/4.1.2/../../../../nios2-elf/lib/libc.a(lib_a-s_isinfd.o)
 .debug_pubnames
                0x000008a7       0x1f /OPT/altera/12.1/nios2eds/bin/gnu/H-i686-pc-linux-gnu/bin/../lib/gcc/nios2-elf/4.1.2/../../../../nios2-elf/lib/libc.a(lib_a-s_isnand.o)
 .debug_pubnames
                0x000008c6       0x2d /OPT/altera/12.1/nios2eds/bin/gnu/H-i686-pc-linux-gnu/bin/../lib/gcc/nios2-elf/4.1.2/../../../../nios2-elf/lib/libc.a(lib_a-sprintf.o)
 .debug_pubnames
                0x000008f3       0x44 /OPT/altera/12.1/nios2eds/bin/gnu/H-i686-pc-linux-gnu/bin/../lib/gcc/nios2-elf/4.1.2/../../../../nios2-elf/lib/libc.a(lib_a-stdio.o)
 .debug_pubnames
                0x00000937       0x1d /OPT/altera/12.1/nios2eds/bin/gnu/H-i686-pc-linux-gnu/bin/../lib/gcc/nios2-elf/4.1.2/../../../../nios2-elf/lib/libc.a(lib_a-strcmp.o)
 .debug_pubnames
                0x00000954       0x1f /OPT/altera/12.1/nios2eds/bin/gnu/H-i686-pc-linux-gnu/bin/../lib/gcc/nios2-elf/4.1.2/../../../../nios2-elf/lib/libc.a(lib_a-writer.o)
 .debug_pubnames
                0x00000973       0x20 /OPT/altera/12.1/nios2eds/bin/gnu/H-i686-pc-linux-gnu/bin/../lib/gcc/nios2-elf/4.1.2/../../../../nios2-elf/lib/libc.a(lib_a-callocr.o)
 .debug_pubnames
                0x00000993       0x1f /OPT/altera/12.1/nios2eds/bin/gnu/H-i686-pc-linux-gnu/bin/../lib/gcc/nios2-elf/4.1.2/../../../../nios2-elf/lib/libc.a(lib_a-closer.o)
 .debug_pubnames
                0x000009b2       0x2b /OPT/altera/12.1/nios2eds/bin/gnu/H-i686-pc-linux-gnu/bin/../lib/gcc/nios2-elf/4.1.2/../../../../nios2-elf/lib/libc.a(lib_a-fclose.o)
 .debug_pubnames
                0x000009dd       0x1f /OPT/altera/12.1/nios2eds/bin/gnu/H-i686-pc-linux-gnu/bin/../lib/gcc/nios2-elf/4.1.2/../../../../nios2-elf/lib/libc.a(lib_a-fstatr.o)
 .debug_pubnames
                0x000009fc       0x20 /OPT/altera/12.1/nios2eds/bin/gnu/H-i686-pc-linux-gnu/bin/../lib/gcc/nios2-elf/4.1.2/../../../../nios2-elf/lib/libc.a(lib_a-isattyr.o)
 .debug_pubnames
                0x00000a1c       0x1f /OPT/altera/12.1/nios2eds/bin/gnu/H-i686-pc-linux-gnu/bin/../lib/gcc/nios2-elf/4.1.2/../../../../nios2-elf/lib/libc.a(lib_a-lseekr.o)
 .debug_pubnames
                0x00000a3b       0x1e /OPT/altera/12.1/nios2eds/bin/gnu/H-i686-pc-linux-gnu/bin/../lib/gcc/nios2-elf/4.1.2/../../../../nios2-elf/lib/libc.a(lib_a-readr.o)
 .debug_pubnames
                0x00000a59       0x20 /OPT/altera/12.1/nios2eds/bin/gnu/H-i686-pc-linux-gnu/bin/../lib/gcc/nios2-elf/4.1.2/libgcc.a(_udivdi3.o)
 .debug_pubnames
                0x00000a79       0x20 /OPT/altera/12.1/nios2eds/bin/gnu/H-i686-pc-linux-gnu/bin/../lib/gcc/nios2-elf/4.1.2/libgcc.a(_umoddi3.o)
 .debug_pubnames
                0x00000a99       0x2c /OPT/altera/12.1/nios2eds/bin/gnu/H-i686-pc-linux-gnu/bin/../lib/gcc/nios2-elf/4.1.2/libgcc.a(_addsub_df.o)
 .debug_pubnames
                0x00000ac5       0x1f /OPT/altera/12.1/nios2eds/bin/gnu/H-i686-pc-linux-gnu/bin/../lib/gcc/nios2-elf/4.1.2/libgcc.a(_mul_df.o)
 .debug_pubnames
                0x00000ae4       0x1f /OPT/altera/12.1/nios2eds/bin/gnu/H-i686-pc-linux-gnu/bin/../lib/gcc/nios2-elf/4.1.2/libgcc.a(_div_df.o)
 .debug_pubnames
                0x00000b03       0x1e /OPT/altera/12.1/nios2eds/bin/gnu/H-i686-pc-linux-gnu/bin/../lib/gcc/nios2-elf/4.1.2/libgcc.a(_eq_df.o)
 .debug_pubnames
                0x00000b21       0x1e /OPT/altera/12.1/nios2eds/bin/gnu/H-i686-pc-linux-gnu/bin/../lib/gcc/nios2-elf/4.1.2/libgcc.a(_ne_df.o)
 .debug_pubnames
                0x00000b3f       0x1e /OPT/altera/12.1/nios2eds/bin/gnu/H-i686-pc-linux-gnu/bin/../lib/gcc/nios2-elf/4.1.2/libgcc.a(_gt_df.o)
 .debug_pubnames
                0x00000b5d       0x1e /OPT/altera/12.1/nios2eds/bin/gnu/H-i686-pc-linux-gnu/bin/../lib/gcc/nios2-elf/4.1.2/libgcc.a(_ge_df.o)
 .debug_pubnames
                0x00000b7b       0x1e /OPT/altera/12.1/nios2eds/bin/gnu/H-i686-pc-linux-gnu/bin/../lib/gcc/nios2-elf/4.1.2/libgcc.a(_lt_df.o)
 .debug_pubnames
                0x00000b99       0x22 /OPT/altera/12.1/nios2eds/bin/gnu/H-i686-pc-linux-gnu/bin/../lib/gcc/nios2-elf/4.1.2/libgcc.a(_si_to_df.o)
 .debug_pubnames
                0x00000bbb       0x20 /OPT/altera/12.1/nios2eds/bin/gnu/H-i686-pc-linux-gnu/bin/../lib/gcc/nios2-elf/4.1.2/libgcc.a(_df_to_si.o)
 .debug_pubnames
                0x00000bdb       0x22 /OPT/altera/12.1/nios2eds/bin/gnu/H-i686-pc-linux-gnu/bin/../lib/gcc/nios2-elf/4.1.2/libgcc.a(_thenan_df.o)
 .debug_pubnames
                0x00000bfd       0x24 /OPT/altera/12.1/nios2eds/bin/gnu/H-i686-pc-linux-gnu/bin/../lib/gcc/nios2-elf/4.1.2/libgcc.a(_usi_to_df.o)
 .debug_pubnames
                0x00000c21       0x48 /OPT/altera/12.1/nios2eds/bin/gnu/H-i686-pc-linux-gnu/bin/../lib/gcc/nios2-elf/4.1.2/libgcc.a(lib2-divmod.o)
 .debug_pubnames
                0x00000c69       0x1f /OPT/altera/12.1/nios2eds/bin/gnu/H-i686-pc-linux-gnu/bin/../lib/gcc/nios2-elf/4.1.2/libgcc.a(_muldi3.o)
 .debug_pubnames
                0x00000c88       0x20 /OPT/altera/12.1/nios2eds/bin/gnu/H-i686-pc-linux-gnu/bin/../lib/gcc/nios2-elf/4.1.2/libgcc.a(_clz.o)
 .debug_pubnames
                0x00000ca8       0x1f /OPT/altera/12.1/nios2eds/bin/gnu/H-i686-pc-linux-gnu/bin/../lib/gcc/nios2-elf/4.1.2/libgcc.a(_clzsi2.o)
 .debug_pubnames
                0x00000cc7       0x1f /OPT/altera/12.1/nios2eds/bin/gnu/H-i686-pc-linux-gnu/bin/../lib/gcc/nios2-elf/4.1.2/libgcc.a(_pack_df.o)
 .debug_pubnames
                0x00000ce6       0x21 /OPT/altera/12.1/nios2eds/bin/gnu/H-i686-pc-linux-gnu/bin/../lib/gcc/nios2-elf/4.1.2/libgcc.a(_unpack_df.o)
 .debug_pubnames
                0x00000d07       0x26 /OPT/altera/12.1/nios2eds/bin/gnu/H-i686-pc-linux-gnu/bin/../lib/gcc/nios2-elf/4.1.2/libgcc.a(_fpcmp_parts_df.o)
 .debug_pubnames
                0x00000d2d       0x1c ../vga_bsp//libucosii_bsp.a(alt_close.o)
 .debug_pubnames
                0x00000d49       0x78 ../vga_bsp//libucosii_bsp.a(alt_dev.o)
 .debug_pubnames
                0x00000dc1       0x20 ../vga_bsp//libucosii_bsp.a(alt_errno.o)
 .debug_pubnames
                0x00000de1       0x1c ../vga_bsp//libucosii_bsp.a(alt_fstat.o)
 .debug_pubnames
                0x00000dfd       0x46 ../vga_bsp//libucosii_bsp.a(alt_gettod.o)
 .debug_pubnames
                0x00000e43       0x1d ../vga_bsp//libucosii_bsp.a(alt_isatty.o)
 .debug_pubnames
                0x00000e60       0x1f ../vga_bsp//libucosii_bsp.a(alt_load.o)
 .debug_pubnames
                0x00000e7f       0x1c ../vga_bsp//libucosii_bsp.a(alt_lseek.o)
 .debug_pubnames
                0x00000e9b       0x46 ../vga_bsp//libucosii_bsp.a(alt_main.o)
 .debug_pubnames
                0x00000ee1       0x1b ../vga_bsp//libucosii_bsp.a(alt_read.o)
 .debug_pubnames
                0x00000efc       0x25 ../vga_bsp//libucosii_bsp.a(alt_release_fd.o)
 .debug_pubnames
                0x00000f21       0x1b ../vga_bsp//libucosii_bsp.a(alt_sbrk.o)
 .debug_pubnames
                0x00000f3c       0x68 ../vga_bsp//libucosii_bsp.a(alt_tick.o)
 .debug_pubnames
                0x00000fa4       0x1c ../vga_bsp//libucosii_bsp.a(alt_write.o)
 .debug_pubnames
                0x00000fc0       0x41 ../vga_bsp//libucosii_bsp.a(alt_env_lock.o)
 .debug_pubnames
                0x00001001       0x48 ../vga_bsp//libucosii_bsp.a(alt_malloc_lock.o)
 .debug_pubnames
                0x00001049      0x3f8 ../vga_bsp//libucosii_bsp.a(os_core.o)
 .debug_pubnames
                0x00001441      0x3c5 ../vga_bsp//libucosii_bsp.a(os_dbg.o)
 .debug_pubnames
                0x00001806       0xd0 ../vga_bsp//libucosii_bsp.a(os_flag.o)
 .debug_pubnames
                0x000018d6       0x7c ../vga_bsp//libucosii_bsp.a(os_mem.o)
 .debug_pubnames
                0x00001952       0xa9 ../vga_bsp//libucosii_bsp.a(os_q.o)
 .debug_pubnames
                0x000019fb       0x8a ../vga_bsp//libucosii_bsp.a(os_sem.o)
 .debug_pubnames
                0x00001a85       0xe5 ../vga_bsp//libucosii_bsp.a(os_task.o)
 .debug_pubnames
                0x00001b6a       0x62 ../vga_bsp//libucosii_bsp.a(os_time.o)
 .debug_pubnames
                0x00001bcc       0x34 ../vga_bsp//libucosii_bsp.a(alt_sys_init.o)
 .debug_pubnames
                0x00001c00       0xa5 ../vga_bsp//libucosii_bsp.a(altera_avalon_jtag_uart_fd.o)
 .debug_pubnames
                0x00001ca5       0x55 ../vga_bsp//libucosii_bsp.a(altera_avalon_jtag_uart_init.o)
 .debug_pubnames
                0x00001cfa       0x34 ../vga_bsp//libucosii_bsp.a(altera_avalon_jtag_uart_ioctl.o)
 .debug_pubnames
                0x00001d2e       0x33 ../vga_bsp//libucosii_bsp.a(altera_avalon_jtag_uart_read.o)
 .debug_pubnames
                0x00001d61       0x34 ../vga_bsp//libucosii_bsp.a(altera_avalon_jtag_uart_write.o)
 .debug_pubnames
                0x00001d95       0x2f ../vga_bsp//libucosii_bsp.a(altera_avalon_timer_sc.o)
 .debug_pubnames
                0x00001dc4      0x1cd ../vga_bsp//libucosii_bsp.a(altera_up_avalon_character_lcd.o)
 .debug_pubnames
                0x00001f91      0x1f1 ../vga_bsp//libucosii_bsp.a(altera_up_avalon_video_pixel_buffer_dma.o)
 .debug_pubnames
                0x00002182      0x564 ../vga_bsp//libucosii_bsp.a(altera_up_sd_card_avalon_interface.o)
 .debug_pubnames
                0x000026e6       0x26 ../vga_bsp//libucosii_bsp.a(alt_alarm_start.o)
 .debug_pubnames
                0x0000270c       0x2b ../vga_bsp//libucosii_bsp.a(alt_dcache_flush_all.o)
 .debug_pubnames
                0x00002737       0x2b ../vga_bsp//libucosii_bsp.a(alt_dev_llist_insert.o)
 .debug_pubnames
                0x00002762       0x20 ../vga_bsp//libucosii_bsp.a(alt_do_ctors.o)
 .debug_pubnames
                0x00002782       0x20 ../vga_bsp//libucosii_bsp.a(alt_do_dtors.o)
 .debug_pubnames
                0x000027a2       0x23 ../vga_bsp//libucosii_bsp.a(alt_find_dev.o)
 .debug_pubnames
                0x000027c5       0x2b ../vga_bsp//libucosii_bsp.a(alt_icache_flush_all.o)
 .debug_pubnames
                0x000027f0       0x6e ../vga_bsp//libucosii_bsp.a(alt_iic.o)
 .debug_pubnames
                0x0000285e       0x2b ../vga_bsp//libucosii_bsp.a(alt_iic_isr_register.o)
 .debug_pubnames
                0x00002889       0x26 ../vga_bsp//libucosii_bsp.a(alt_io_redirect.o)
 .debug_pubnames
                0x000028af       0x32 ../vga_bsp//libucosii_bsp.a(alt_irq_handler.o)
 .debug_pubnames
                0x000028e1       0x3b ../vga_bsp//libucosii_bsp.a(alt_irq_vars.o)
 .debug_pubnames
                0x0000291c       0x1b ../vga_bsp//libucosii_bsp.a(alt_open.o)
 .debug_pubnames
                0x00002937       0x31 ../vga_bsp//libucosii_bsp.a(altera_nios2_qsys_irq.o)
 .debug_pubnames
                0x00002968       0xcd ../vga_bsp//libucosii_bsp.a(os_cpu_c.o)
 .debug_pubnames
                0x00002a35       0x24 ../vga_bsp//libucosii_bsp.a(alt_find_file.o)
 .debug_pubnames
                0x00002a59       0x21 ../vga_bsp//libucosii_bsp.a(alt_get_fd.o)
 .debug_pubnames
                0x00002a7a       0x27 ../vga_bsp//libucosii_bsp.a(alt_icache_flush.o)
 .debug_pubnames
                0x00002aa1       0x2a /OPT/altera/12.1/nios2eds/bin/gnu/H-i686-pc-linux-gnu/bin/../lib/gcc/nios2-elf/4.1.2/../../../../nios2-elf/lib/libc.a(lib_a-atexit.o)
 .debug_pubnames
                0x00002acb       0x1b /OPT/altera/12.1/nios2eds/bin/gnu/H-i686-pc-linux-gnu/bin/../lib/gcc/nios2-elf/4.1.2/../../../../nios2-elf/lib/libc.a(lib_a-exit.o)
 .debug_pubnames
                0x00002ae6       0x1d /OPT/altera/12.1/nios2eds/bin/gnu/H-i686-pc-linux-gnu/bin/../lib/gcc/nios2-elf/4.1.2/../../../../nios2-elf/lib/libc.a(lib_a-memcmp.o)
 .debug_pubnames
                0x00002b03       0x2a /OPT/altera/12.1/nios2eds/bin/gnu/H-i686-pc-linux-gnu/bin/../lib/gcc/nios2-elf/4.1.2/../../../../nios2-elf/lib/libc.a(lib_a-__atexit.o)
 .debug_pubnames
                0x00002b2d       0x27 /OPT/altera/12.1/nios2eds/bin/gnu/H-i686-pc-linux-gnu/bin/../lib/gcc/nios2-elf/4.1.2/../../../../nios2-elf/lib/libc.a(lib_a-__call_atexit.o)
 .debug_pubnames
                0x00002b54       0x1c ../vga_bsp//libucosii_bsp.a(alt_exit.o)

.debug_info     0x00000000    0x38602
 *(.debug_info .gnu.linkonce.wi.*)
 .debug_info    0x00000000       0xa6 ../vga_bsp//obj/HAL/src/crt0.o
 .debug_info    0x000000a6      0x78b obj/default/hello_ucosii.o
 .debug_info    0x00000831       0xc3 /OPT/altera/12.1/nios2eds/bin/gnu/H-i686-pc-linux-gnu/bin/../lib/gcc/nios2-elf/4.1.2/../../../../nios2-elf/lib/libc.a(lib_a-ctime.o)
 .debug_info    0x000008f4      0x9e2 /OPT/altera/12.1/nios2eds/bin/gnu/H-i686-pc-linux-gnu/bin/../lib/gcc/nios2-elf/4.1.2/../../../../nios2-elf/lib/libc.a(lib_a-lcltime.o)
 .debug_info    0x000012d6      0x15a /OPT/altera/12.1/nios2eds/bin/gnu/H-i686-pc-linux-gnu/bin/../lib/gcc/nios2-elf/4.1.2/../../../../nios2-elf/lib/libc.a(lib_a-lcltime_r.o)
 .debug_info    0x00001430      0x96e /OPT/altera/12.1/nios2eds/bin/gnu/H-i686-pc-linux-gnu/bin/../lib/gcc/nios2-elf/4.1.2/../../../../nios2-elf/lib/libc.a(lib_a-malloc.o)
 .debug_info    0x00001d9e      0xcd0 /OPT/altera/12.1/nios2eds/bin/gnu/H-i686-pc-linux-gnu/bin/../lib/gcc/nios2-elf/4.1.2/../../../../nios2-elf/lib/libc.a(lib_a-mallocr.o)
 .debug_info    0x00002a6e      0x403 /OPT/altera/12.1/nios2eds/bin/gnu/H-i686-pc-linux-gnu/bin/../lib/gcc/nios2-elf/4.1.2/../../../../nios2-elf/lib/libc.a(lib_a-mktm_r.o)
 .debug_info    0x00002e71      0x9d1 /OPT/altera/12.1/nios2eds/bin/gnu/H-i686-pc-linux-gnu/bin/../lib/gcc/nios2-elf/4.1.2/../../../../nios2-elf/lib/libc.a(lib_a-printf.o)
 .debug_info    0x00003842      0xa25 /OPT/altera/12.1/nios2eds/bin/gnu/H-i686-pc-linux-gnu/bin/../lib/gcc/nios2-elf/4.1.2/../../../../nios2-elf/lib/libc.a(lib_a-puts.o)
 .debug_info    0x00004267      0x962 /OPT/altera/12.1/nios2eds/bin/gnu/H-i686-pc-linux-gnu/bin/../lib/gcc/nios2-elf/4.1.2/../../../../nios2-elf/lib/libc.a(lib_a-sbrkr.o)
 .debug_info    0x00004bc9       0xdb /OPT/altera/12.1/nios2eds/bin/gnu/H-i686-pc-linux-gnu/bin/../lib/gcc/nios2-elf/4.1.2/../../../../nios2-elf/lib/libc.a(lib_a-strlen.o)
 .debug_info    0x00004ca4      0x98f /OPT/altera/12.1/nios2eds/bin/gnu/H-i686-pc-linux-gnu/bin/../lib/gcc/nios2-elf/4.1.2/../../../../nios2-elf/lib/libc.a(lib_a-time.o)
 .debug_info    0x00005633       0xac /OPT/altera/12.1/nios2eds/bin/gnu/H-i686-pc-linux-gnu/bin/../lib/gcc/nios2-elf/4.1.2/../../../../nios2-elf/lib/libc.a(lib_a-tzlock.o)
 .debug_info    0x000056df       0xc6 /OPT/altera/12.1/nios2eds/bin/gnu/H-i686-pc-linux-gnu/bin/../lib/gcc/nios2-elf/4.1.2/../../../../nios2-elf/lib/libc.a(lib_a-tzvars.o)
 .debug_info    0x000057a5     0x10d5 /OPT/altera/12.1/nios2eds/bin/gnu/H-i686-pc-linux-gnu/bin/../lib/gcc/nios2-elf/4.1.2/../../../../nios2-elf/lib/libc.a(lib_a-vfprintf.o)
 .debug_info    0x0000687a      0x95d /OPT/altera/12.1/nios2eds/bin/gnu/H-i686-pc-linux-gnu/bin/../lib/gcc/nios2-elf/4.1.2/../../../../nios2-elf/lib/libc.a(lib_a-wsetup.o)
 .debug_info    0x000071d7      0x9d1 /OPT/altera/12.1/nios2eds/bin/gnu/H-i686-pc-linux-gnu/bin/../lib/gcc/nios2-elf/4.1.2/../../../../nios2-elf/lib/libc.a(lib_a-asctime.o)
 .debug_info    0x00007ba8      0x1a9 /OPT/altera/12.1/nios2eds/bin/gnu/H-i686-pc-linux-gnu/bin/../lib/gcc/nios2-elf/4.1.2/../../../../nios2-elf/lib/libc.a(lib_a-asctime_r.o)
 .debug_info    0x00007d51      0xd6f /OPT/altera/12.1/nios2eds/bin/gnu/H-i686-pc-linux-gnu/bin/../lib/gcc/nios2-elf/4.1.2/../../../../nios2-elf/lib/libc.a(lib_a-dtoa.o)
 .debug_info    0x00008ac0      0x9fe /OPT/altera/12.1/nios2eds/bin/gnu/H-i686-pc-linux-gnu/bin/../lib/gcc/nios2-elf/4.1.2/../../../../nios2-elf/lib/libc.a(lib_a-fflush.o)
 .debug_info    0x000094be      0xb72 /OPT/altera/12.1/nios2eds/bin/gnu/H-i686-pc-linux-gnu/bin/../lib/gcc/nios2-elf/4.1.2/../../../../nios2-elf/lib/libc.a(lib_a-findfp.o)
 .debug_info    0x0000a030      0xbc9 /OPT/altera/12.1/nios2eds/bin/gnu/H-i686-pc-linux-gnu/bin/../lib/gcc/nios2-elf/4.1.2/../../../../nios2-elf/lib/libc.a(lib_a-freer.o)
 .debug_info    0x0000abf9      0xa88 /OPT/altera/12.1/nios2eds/bin/gnu/H-i686-pc-linux-gnu/bin/../lib/gcc/nios2-elf/4.1.2/../../../../nios2-elf/lib/libc.a(lib_a-fvwrite.o)
 .debug_info    0x0000b681      0xaed /OPT/altera/12.1/nios2eds/bin/gnu/H-i686-pc-linux-gnu/bin/../lib/gcc/nios2-elf/4.1.2/../../../../nios2-elf/lib/libc.a(lib_a-fwalk.o)
 .debug_info    0x0000c16e      0x9ad /OPT/altera/12.1/nios2eds/bin/gnu/H-i686-pc-linux-gnu/bin/../lib/gcc/nios2-elf/4.1.2/../../../../nios2-elf/lib/libc.a(lib_a-gettimeofdayr.o)
 .debug_info    0x0000cb1b      0x176 /OPT/altera/12.1/nios2eds/bin/gnu/H-i686-pc-linux-gnu/bin/../lib/gcc/nios2-elf/4.1.2/../../../../nios2-elf/lib/libc.a(lib_a-gettzinfo.o)
 .debug_info    0x0000cc91      0x93d /OPT/altera/12.1/nios2eds/bin/gnu/H-i686-pc-linux-gnu/bin/../lib/gcc/nios2-elf/4.1.2/../../../../nios2-elf/lib/libc.a(lib_a-impure.o)
 .debug_info    0x0000d5ce       0x8c /OPT/altera/12.1/nios2eds/bin/gnu/H-i686-pc-linux-gnu/bin/../lib/gcc/nios2-elf/4.1.2/../../../../nios2-elf/lib/libc.a(lib_a-int_errno.o)
 .debug_info    0x0000d65a      0xb97 /OPT/altera/12.1/nios2eds/bin/gnu/H-i686-pc-linux-gnu/bin/../lib/gcc/nios2-elf/4.1.2/../../../../nios2-elf/lib/libc.a(lib_a-locale.o)
 .debug_info    0x0000e1f1      0xb1a /OPT/altera/12.1/nios2eds/bin/gnu/H-i686-pc-linux-gnu/bin/../lib/gcc/nios2-elf/4.1.2/../../../../nios2-elf/lib/libc.a(lib_a-makebuf.o)
 .debug_info    0x0000ed0b      0x138 /OPT/altera/12.1/nios2eds/bin/gnu/H-i686-pc-linux-gnu/bin/../lib/gcc/nios2-elf/4.1.2/../../../../nios2-elf/lib/libc.a(lib_a-memchr.o)
 .debug_info    0x0000ee43      0x106 /OPT/altera/12.1/nios2eds/bin/gnu/H-i686-pc-linux-gnu/bin/../lib/gcc/nios2-elf/4.1.2/../../../../nios2-elf/lib/libc.a(lib_a-memcpy.o)
 .debug_info    0x0000ef49      0x13e /OPT/altera/12.1/nios2eds/bin/gnu/H-i686-pc-linux-gnu/bin/../lib/gcc/nios2-elf/4.1.2/../../../../nios2-elf/lib/libc.a(lib_a-memmove.o)
 .debug_info    0x0000f087      0x113 /OPT/altera/12.1/nios2eds/bin/gnu/H-i686-pc-linux-gnu/bin/../lib/gcc/nios2-elf/4.1.2/../../../../nios2-elf/lib/libc.a(lib_a-memset.o)
 .debug_info    0x0000f19a     0x1437 /OPT/altera/12.1/nios2eds/bin/gnu/H-i686-pc-linux-gnu/bin/../lib/gcc/nios2-elf/4.1.2/../../../../nios2-elf/lib/libc.a(lib_a-mprec.o)
 .debug_info    0x000105d1      0xbd7 /OPT/altera/12.1/nios2eds/bin/gnu/H-i686-pc-linux-gnu/bin/../lib/gcc/nios2-elf/4.1.2/../../../../nios2-elf/lib/libc.a(lib_a-reallocr.o)
 .debug_info    0x000111a8       0xd7 /OPT/altera/12.1/nios2eds/bin/gnu/H-i686-pc-linux-gnu/bin/../lib/gcc/nios2-elf/4.1.2/../../../../nios2-elf/lib/libc.a(lib_a-s_isinfd.o)
 .debug_info    0x0001127f       0xd5 /OPT/altera/12.1/nios2eds/bin/gnu/H-i686-pc-linux-gnu/bin/../lib/gcc/nios2-elf/4.1.2/../../../../nios2-elf/lib/libc.a(lib_a-s_isnand.o)
 .debug_info    0x00011354      0xa16 /OPT/altera/12.1/nios2eds/bin/gnu/H-i686-pc-linux-gnu/bin/../lib/gcc/nios2-elf/4.1.2/../../../../nios2-elf/lib/libc.a(lib_a-sprintf.o)
 .debug_info    0x00011d6a      0xaac /OPT/altera/12.1/nios2eds/bin/gnu/H-i686-pc-linux-gnu/bin/../lib/gcc/nios2-elf/4.1.2/../../../../nios2-elf/lib/libc.a(lib_a-stdio.o)
 .debug_info    0x00012816       0xdd /OPT/altera/12.1/nios2eds/bin/gnu/H-i686-pc-linux-gnu/bin/../lib/gcc/nios2-elf/4.1.2/../../../../nios2-elf/lib/libc.a(lib_a-strcmp.o)
 .debug_info    0x000128f3      0x993 /OPT/altera/12.1/nios2eds/bin/gnu/H-i686-pc-linux-gnu/bin/../lib/gcc/nios2-elf/4.1.2/../../../../nios2-elf/lib/libc.a(lib_a-writer.o)
 .debug_info    0x00013286      0xa1b /OPT/altera/12.1/nios2eds/bin/gnu/H-i686-pc-linux-gnu/bin/../lib/gcc/nios2-elf/4.1.2/../../../../nios2-elf/lib/libc.a(lib_a-callocr.o)
 .debug_info    0x00013ca1      0x958 /OPT/altera/12.1/nios2eds/bin/gnu/H-i686-pc-linux-gnu/bin/../lib/gcc/nios2-elf/4.1.2/../../../../nios2-elf/lib/libc.a(lib_a-closer.o)
 .debug_info    0x000145f9      0x994 /OPT/altera/12.1/nios2eds/bin/gnu/H-i686-pc-linux-gnu/bin/../lib/gcc/nios2-elf/4.1.2/../../../../nios2-elf/lib/libc.a(lib_a-fclose.o)
 .debug_info    0x00014f8d      0xafc /OPT/altera/12.1/nios2eds/bin/gnu/H-i686-pc-linux-gnu/bin/../lib/gcc/nios2-elf/4.1.2/../../../../nios2-elf/lib/libc.a(lib_a-fstatr.o)
 .debug_info    0x00015a89      0x958 /OPT/altera/12.1/nios2eds/bin/gnu/H-i686-pc-linux-gnu/bin/../lib/gcc/nios2-elf/4.1.2/../../../../nios2-elf/lib/libc.a(lib_a-isattyr.o)
 .debug_info    0x000163e1      0x981 /OPT/altera/12.1/nios2eds/bin/gnu/H-i686-pc-linux-gnu/bin/../lib/gcc/nios2-elf/4.1.2/../../../../nios2-elf/lib/libc.a(lib_a-lseekr.o)
 .debug_info    0x00016d62      0x98c /OPT/altera/12.1/nios2eds/bin/gnu/H-i686-pc-linux-gnu/bin/../lib/gcc/nios2-elf/4.1.2/../../../../nios2-elf/lib/libc.a(lib_a-readr.o)
 .debug_info    0x000176ee      0x724 /OPT/altera/12.1/nios2eds/bin/gnu/H-i686-pc-linux-gnu/bin/../lib/gcc/nios2-elf/4.1.2/libgcc.a(_udivdi3.o)
 .debug_info    0x00017e12      0x751 /OPT/altera/12.1/nios2eds/bin/gnu/H-i686-pc-linux-gnu/bin/../lib/gcc/nios2-elf/4.1.2/libgcc.a(_umoddi3.o)
 .debug_info    0x00018563      0x493 /OPT/altera/12.1/nios2eds/bin/gnu/H-i686-pc-linux-gnu/bin/../lib/gcc/nios2-elf/4.1.2/libgcc.a(_addsub_df.o)
 .debug_info    0x000189f6      0x488 /OPT/altera/12.1/nios2eds/bin/gnu/H-i686-pc-linux-gnu/bin/../lib/gcc/nios2-elf/4.1.2/libgcc.a(_mul_df.o)
 .debug_info    0x00018e7e      0x39b /OPT/altera/12.1/nios2eds/bin/gnu/H-i686-pc-linux-gnu/bin/../lib/gcc/nios2-elf/4.1.2/libgcc.a(_div_df.o)
 .debug_info    0x00019219      0x29d /OPT/altera/12.1/nios2eds/bin/gnu/H-i686-pc-linux-gnu/bin/../lib/gcc/nios2-elf/4.1.2/libgcc.a(_eq_df.o)
 .debug_info    0x000194b6      0x29d /OPT/altera/12.1/nios2eds/bin/gnu/H-i686-pc-linux-gnu/bin/../lib/gcc/nios2-elf/4.1.2/libgcc.a(_ne_df.o)
 .debug_info    0x00019753      0x29d /OPT/altera/12.1/nios2eds/bin/gnu/H-i686-pc-linux-gnu/bin/../lib/gcc/nios2-elf/4.1.2/libgcc.a(_gt_df.o)
 .debug_info    0x000199f0      0x29d /OPT/altera/12.1/nios2eds/bin/gnu/H-i686-pc-linux-gnu/bin/../lib/gcc/nios2-elf/4.1.2/libgcc.a(_ge_df.o)
 .debug_info    0x00019c8d      0x29d /OPT/altera/12.1/nios2eds/bin/gnu/H-i686-pc-linux-gnu/bin/../lib/gcc/nios2-elf/4.1.2/libgcc.a(_lt_df.o)
 .debug_info    0x00019f2a      0x218 /OPT/altera/12.1/nios2eds/bin/gnu/H-i686-pc-linux-gnu/bin/../lib/gcc/nios2-elf/4.1.2/libgcc.a(_si_to_df.o)
 .debug_info    0x0001a142      0x2cd /OPT/altera/12.1/nios2eds/bin/gnu/H-i686-pc-linux-gnu/bin/../lib/gcc/nios2-elf/4.1.2/libgcc.a(_df_to_si.o)
 .debug_info    0x0001a40f      0x164 /OPT/altera/12.1/nios2eds/bin/gnu/H-i686-pc-linux-gnu/bin/../lib/gcc/nios2-elf/4.1.2/libgcc.a(_thenan_df.o)
 .debug_info    0x0001a573      0x213 /OPT/altera/12.1/nios2eds/bin/gnu/H-i686-pc-linux-gnu/bin/../lib/gcc/nios2-elf/4.1.2/libgcc.a(_usi_to_df.o)
 .debug_info    0x0001a786      0x21c /OPT/altera/12.1/nios2eds/bin/gnu/H-i686-pc-linux-gnu/bin/../lib/gcc/nios2-elf/4.1.2/libgcc.a(lib2-divmod.o)
 .debug_info    0x0001a9a2      0x215 /OPT/altera/12.1/nios2eds/bin/gnu/H-i686-pc-linux-gnu/bin/../lib/gcc/nios2-elf/4.1.2/libgcc.a(_muldi3.o)
 .debug_info    0x0001abb7       0xc9 /OPT/altera/12.1/nios2eds/bin/gnu/H-i686-pc-linux-gnu/bin/../lib/gcc/nios2-elf/4.1.2/libgcc.a(_clz.o)
 .debug_info    0x0001ac80      0x130 /OPT/altera/12.1/nios2eds/bin/gnu/H-i686-pc-linux-gnu/bin/../lib/gcc/nios2-elf/4.1.2/libgcc.a(_clzsi2.o)
 .debug_info    0x0001adb0      0x2fc /OPT/altera/12.1/nios2eds/bin/gnu/H-i686-pc-linux-gnu/bin/../lib/gcc/nios2-elf/4.1.2/libgcc.a(_pack_df.o)
 .debug_info    0x0001b0ac      0x268 /OPT/altera/12.1/nios2eds/bin/gnu/H-i686-pc-linux-gnu/bin/../lib/gcc/nios2-elf/4.1.2/libgcc.a(_unpack_df.o)
 .debug_info    0x0001b314      0x21b /OPT/altera/12.1/nios2eds/bin/gnu/H-i686-pc-linux-gnu/bin/../lib/gcc/nios2-elf/4.1.2/libgcc.a(_fpcmp_parts_df.o)
 .debug_info    0x0001b52f      0x4e6 ../vga_bsp//libucosii_bsp.a(alt_close.o)
 .debug_info    0x0001ba15      0x808 ../vga_bsp//libucosii_bsp.a(alt_dev.o)
 .debug_info    0x0001c21d      0x18f ../vga_bsp//libucosii_bsp.a(alt_errno.o)
 .debug_info    0x0001c3ac      0x6df ../vga_bsp//libucosii_bsp.a(alt_fstat.o)
 .debug_info    0x0001ca8b      0x34e ../vga_bsp//libucosii_bsp.a(alt_gettod.o)
 .debug_info    0x0001cdd9      0x6e5 ../vga_bsp//libucosii_bsp.a(alt_isatty.o)
 .debug_info    0x0001d4be      0x2b8 ../vga_bsp//libucosii_bsp.a(alt_load.o)
 .debug_info    0x0001d776      0x519 ../vga_bsp//libucosii_bsp.a(alt_lseek.o)
 .debug_info    0x0001dc8f      0x408 ../vga_bsp//libucosii_bsp.a(alt_main.o)
 .debug_info    0x0001e097      0x709 ../vga_bsp//libucosii_bsp.a(alt_read.o)
 .debug_info    0x0001e7a0      0x47a ../vga_bsp//libucosii_bsp.a(alt_release_fd.o)
 .debug_info    0x0001ec1a      0x2e2 ../vga_bsp//libucosii_bsp.a(alt_sbrk.o)
 .debug_info    0x0001eefc      0x43c ../vga_bsp//libucosii_bsp.a(alt_tick.o)
 .debug_info    0x0001f338      0x712 ../vga_bsp//libucosii_bsp.a(alt_write.o)
 .debug_info    0x0001fa4a     0x11fe ../vga_bsp//libucosii_bsp.a(alt_env_lock.o)
 .debug_info    0x00020c48     0x135a ../vga_bsp//libucosii_bsp.a(alt_malloc_lock.o)
 .debug_info    0x00021fa2     0x1c14 ../vga_bsp//libucosii_bsp.a(os_core.o)
 .debug_info    0x00023bb6     0x1159 ../vga_bsp//libucosii_bsp.a(os_dbg.o)
 .debug_info    0x00024d0f     0x126f ../vga_bsp//libucosii_bsp.a(os_flag.o)
 .debug_info    0x00025f7e      0x839 ../vga_bsp//libucosii_bsp.a(os_mem.o)
 .debug_info    0x000267b7     0x10a9 ../vga_bsp//libucosii_bsp.a(os_q.o)
 .debug_info    0x00027860      0xd11 ../vga_bsp//libucosii_bsp.a(os_sem.o)
 .debug_info    0x00028571     0x1387 ../vga_bsp//libucosii_bsp.a(os_task.o)
 .debug_info    0x000298f8      0xa0b ../vga_bsp//libucosii_bsp.a(os_time.o)
 .debug_info    0x0002a303      0xb93 ../vga_bsp//libucosii_bsp.a(alt_sys_init.o)
 .debug_info    0x0002ae96      0x9fd ../vga_bsp//libucosii_bsp.a(altera_avalon_jtag_uart_fd.o)
 .debug_info    0x0002b893      0x97b ../vga_bsp//libucosii_bsp.a(altera_avalon_jtag_uart_init.o)
 .debug_info    0x0002c20e      0x667 ../vga_bsp//libucosii_bsp.a(altera_avalon_jtag_uart_ioctl.o)
 .debug_info    0x0002c875      0x823 ../vga_bsp//libucosii_bsp.a(altera_avalon_jtag_uart_read.o)
 .debug_info    0x0002d098      0x81a ../vga_bsp//libucosii_bsp.a(altera_avalon_jtag_uart_write.o)
 .debug_info    0x0002d8b2      0x3b6 ../vga_bsp//libucosii_bsp.a(altera_avalon_timer_sc.o)
 .debug_info    0x0002dc68      0x927 ../vga_bsp//libucosii_bsp.a(altera_up_avalon_character_lcd.o)
 .debug_info    0x0002e58f      0xefd ../vga_bsp//libucosii_bsp.a(altera_up_avalon_video_pixel_buffer_dma.o)
 .debug_info    0x0002f48c     0x221e ../vga_bsp//libucosii_bsp.a(altera_up_sd_card_avalon_interface.o)
 .debug_info    0x000316aa      0x46d ../vga_bsp//libucosii_bsp.a(alt_alarm_start.o)
 .debug_info    0x00031b17      0x19a ../vga_bsp//libucosii_bsp.a(alt_dcache_flush_all.o)
 .debug_info    0x00031cb1      0x2e2 ../vga_bsp//libucosii_bsp.a(alt_dev_llist_insert.o)
 .debug_info    0x00031f93      0x13a ../vga_bsp//libucosii_bsp.a(alt_do_ctors.o)
 .debug_info    0x000320cd      0x139 ../vga_bsp//libucosii_bsp.a(alt_do_dtors.o)
 .debug_info    0x00032206      0x497 ../vga_bsp//libucosii_bsp.a(alt_find_dev.o)
 .debug_info    0x0003269d      0x187 ../vga_bsp//libucosii_bsp.a(alt_icache_flush_all.o)
 .debug_info    0x00032824      0x4be ../vga_bsp//libucosii_bsp.a(alt_iic.o)
 .debug_info    0x00032ce2      0x33f ../vga_bsp//libucosii_bsp.a(alt_iic_isr_register.o)
 .debug_info    0x00033021      0x714 ../vga_bsp//libucosii_bsp.a(alt_io_redirect.o)
 .debug_info    0x00033735       0xaf ../vga_bsp//libucosii_bsp.a(alt_irq_entry.o)
 .debug_info    0x000337e4      0x2e5 ../vga_bsp//libucosii_bsp.a(alt_irq_handler.o)
 .debug_info    0x00033ac9      0x192 ../vga_bsp//libucosii_bsp.a(alt_irq_vars.o)
 .debug_info    0x00033c5b      0x595 ../vga_bsp//libucosii_bsp.a(alt_open.o)
 .debug_info    0x000341f0      0x18e ../vga_bsp//libucosii_bsp.a(altera_nios2_qsys_irq.o)
 .debug_info    0x0003437e       0xae ../vga_bsp//libucosii_bsp.a(os_cpu_a.o)
 .debug_info    0x0003442c     0x12fe ../vga_bsp//libucosii_bsp.a(os_cpu_c.o)
 .debug_info    0x0003572a       0xb5 ../vga_bsp//libucosii_bsp.a(alt_exception_entry.o)
 .debug_info    0x000357df      0x49e ../vga_bsp//libucosii_bsp.a(alt_find_file.o)
 .debug_info    0x00035c7d      0x630 ../vga_bsp//libucosii_bsp.a(alt_get_fd.o)
 .debug_info    0x000362ad      0x1cf ../vga_bsp//libucosii_bsp.a(alt_icache_flush.o)
 .debug_info    0x0003647c      0x181 /OPT/altera/12.1/nios2eds/bin/gnu/H-i686-pc-linux-gnu/bin/../lib/gcc/nios2-elf/4.1.2/../../../../nios2-elf/lib/libc.a(lib_a-atexit.o)
 .debug_info    0x000365fd      0x93f /OPT/altera/12.1/nios2eds/bin/gnu/H-i686-pc-linux-gnu/bin/../lib/gcc/nios2-elf/4.1.2/../../../../nios2-elf/lib/libc.a(lib_a-exit.o)
 .debug_info    0x00036f3c      0x115 /OPT/altera/12.1/nios2eds/bin/gnu/H-i686-pc-linux-gnu/bin/../lib/gcc/nios2-elf/4.1.2/../../../../nios2-elf/lib/libc.a(lib_a-memcmp.o)
 .debug_info    0x00037051      0x99c /OPT/altera/12.1/nios2eds/bin/gnu/H-i686-pc-linux-gnu/bin/../lib/gcc/nios2-elf/4.1.2/../../../../nios2-elf/lib/libc.a(lib_a-__atexit.o)
 .debug_info    0x000379ed      0x9e2 /OPT/altera/12.1/nios2eds/bin/gnu/H-i686-pc-linux-gnu/bin/../lib/gcc/nios2-elf/4.1.2/../../../../nios2-elf/lib/libc.a(lib_a-__call_atexit.o)
 .debug_info    0x000383cf      0x233 ../vga_bsp//libucosii_bsp.a(alt_exit.o)

.debug_abbrev   0x00000000     0xa503
 *(.debug_abbrev)
 .debug_abbrev  0x00000000       0x12 ../vga_bsp//obj/HAL/src/crt0.o
 .debug_abbrev  0x00000012      0x13b obj/default/hello_ucosii.o
 .debug_abbrev  0x0000014d       0x6f /OPT/altera/12.1/nios2eds/bin/gnu/H-i686-pc-linux-gnu/bin/../lib/gcc/nios2-elf/4.1.2/../../../../nios2-elf/lib/libc.a(lib_a-ctime.o)
 .debug_abbrev  0x000001bc      0x17f /OPT/altera/12.1/nios2eds/bin/gnu/H-i686-pc-linux-gnu/bin/../lib/gcc/nios2-elf/4.1.2/../../../../nios2-elf/lib/libc.a(lib_a-lcltime.o)
 .debug_abbrev  0x0000033b       0x9c /OPT/altera/12.1/nios2eds/bin/gnu/H-i686-pc-linux-gnu/bin/../lib/gcc/nios2-elf/4.1.2/../../../../nios2-elf/lib/libc.a(lib_a-lcltime_r.o)
 .debug_abbrev  0x000003d7      0x187 /OPT/altera/12.1/nios2eds/bin/gnu/H-i686-pc-linux-gnu/bin/../lib/gcc/nios2-elf/4.1.2/../../../../nios2-elf/lib/libc.a(lib_a-malloc.o)
 .debug_abbrev  0x0000055e      0x216 /OPT/altera/12.1/nios2eds/bin/gnu/H-i686-pc-linux-gnu/bin/../lib/gcc/nios2-elf/4.1.2/../../../../nios2-elf/lib/libc.a(lib_a-mallocr.o)
 .debug_abbrev  0x00000774      0x134 /OPT/altera/12.1/nios2eds/bin/gnu/H-i686-pc-linux-gnu/bin/../lib/gcc/nios2-elf/4.1.2/../../../../nios2-elf/lib/libc.a(lib_a-mktm_r.o)
 .debug_abbrev  0x000008a8      0x191 /OPT/altera/12.1/nios2eds/bin/gnu/H-i686-pc-linux-gnu/bin/../lib/gcc/nios2-elf/4.1.2/../../../../nios2-elf/lib/libc.a(lib_a-printf.o)
 .debug_abbrev  0x00000a39      0x1ac /OPT/altera/12.1/nios2eds/bin/gnu/H-i686-pc-linux-gnu/bin/../lib/gcc/nios2-elf/4.1.2/../../../../nios2-elf/lib/libc.a(lib_a-puts.o)
 .debug_abbrev  0x00000be5      0x18c /OPT/altera/12.1/nios2eds/bin/gnu/H-i686-pc-linux-gnu/bin/../lib/gcc/nios2-elf/4.1.2/../../../../nios2-elf/lib/libc.a(lib_a-sbrkr.o)
 .debug_abbrev  0x00000d71       0x8b /OPT/altera/12.1/nios2eds/bin/gnu/H-i686-pc-linux-gnu/bin/../lib/gcc/nios2-elf/4.1.2/../../../../nios2-elf/lib/libc.a(lib_a-strlen.o)
 .debug_abbrev  0x00000dfc      0x17f /OPT/altera/12.1/nios2eds/bin/gnu/H-i686-pc-linux-gnu/bin/../lib/gcc/nios2-elf/4.1.2/../../../../nios2-elf/lib/libc.a(lib_a-time.o)
 .debug_abbrev  0x00000f7b       0x4e /OPT/altera/12.1/nios2eds/bin/gnu/H-i686-pc-linux-gnu/bin/../lib/gcc/nios2-elf/4.1.2/../../../../nios2-elf/lib/libc.a(lib_a-tzlock.o)
 .debug_abbrev  0x00000fc9       0x56 /OPT/altera/12.1/nios2eds/bin/gnu/H-i686-pc-linux-gnu/bin/../lib/gcc/nios2-elf/4.1.2/../../../../nios2-elf/lib/libc.a(lib_a-tzvars.o)
 .debug_abbrev  0x0000101f      0x30a /OPT/altera/12.1/nios2eds/bin/gnu/H-i686-pc-linux-gnu/bin/../lib/gcc/nios2-elf/4.1.2/../../../../nios2-elf/lib/libc.a(lib_a-vfprintf.o)
 .debug_abbrev  0x00001329      0x170 /OPT/altera/12.1/nios2eds/bin/gnu/H-i686-pc-linux-gnu/bin/../lib/gcc/nios2-elf/4.1.2/../../../../nios2-elf/lib/libc.a(lib_a-wsetup.o)
 .debug_abbrev  0x00001499      0x17f /OPT/altera/12.1/nios2eds/bin/gnu/H-i686-pc-linux-gnu/bin/../lib/gcc/nios2-elf/4.1.2/../../../../nios2-elf/lib/libc.a(lib_a-asctime.o)
 .debug_abbrev  0x00001618       0xa1 /OPT/altera/12.1/nios2eds/bin/gnu/H-i686-pc-linux-gnu/bin/../lib/gcc/nios2-elf/4.1.2/../../../../nios2-elf/lib/libc.a(lib_a-asctime_r.o)
 .debug_abbrev  0x000016b9      0x232 /OPT/altera/12.1/nios2eds/bin/gnu/H-i686-pc-linux-gnu/bin/../lib/gcc/nios2-elf/4.1.2/../../../../nios2-elf/lib/libc.a(lib_a-dtoa.o)
 .debug_abbrev  0x000018eb      0x1c6 /OPT/altera/12.1/nios2eds/bin/gnu/H-i686-pc-linux-gnu/bin/../lib/gcc/nios2-elf/4.1.2/../../../../nios2-elf/lib/libc.a(lib_a-fflush.o)
 .debug_abbrev  0x00001ab1      0x24c /OPT/altera/12.1/nios2eds/bin/gnu/H-i686-pc-linux-gnu/bin/../lib/gcc/nios2-elf/4.1.2/../../../../nios2-elf/lib/libc.a(lib_a-findfp.o)
 .debug_abbrev  0x00001cfd      0x1d9 /OPT/altera/12.1/nios2eds/bin/gnu/H-i686-pc-linux-gnu/bin/../lib/gcc/nios2-elf/4.1.2/../../../../nios2-elf/lib/libc.a(lib_a-freer.o)
 .debug_abbrev  0x00001ed6      0x1a3 /OPT/altera/12.1/nios2eds/bin/gnu/H-i686-pc-linux-gnu/bin/../lib/gcc/nios2-elf/4.1.2/../../../../nios2-elf/lib/libc.a(lib_a-fvwrite.o)
 .debug_abbrev  0x00002079      0x1e3 /OPT/altera/12.1/nios2eds/bin/gnu/H-i686-pc-linux-gnu/bin/../lib/gcc/nios2-elf/4.1.2/../../../../nios2-elf/lib/libc.a(lib_a-fwalk.o)
 .debug_abbrev  0x0000225c      0x18e /OPT/altera/12.1/nios2eds/bin/gnu/H-i686-pc-linux-gnu/bin/../lib/gcc/nios2-elf/4.1.2/../../../../nios2-elf/lib/libc.a(lib_a-gettimeofdayr.o)
 .debug_abbrev  0x000023ea       0xa5 /OPT/altera/12.1/nios2eds/bin/gnu/H-i686-pc-linux-gnu/bin/../lib/gcc/nios2-elf/4.1.2/../../../../nios2-elf/lib/libc.a(lib_a-gettzinfo.o)
 .debug_abbrev  0x0000248f      0x157 /OPT/altera/12.1/nios2eds/bin/gnu/H-i686-pc-linux-gnu/bin/../lib/gcc/nios2-elf/4.1.2/../../../../nios2-elf/lib/libc.a(lib_a-impure.o)
 .debug_abbrev  0x000025e6       0x3b /OPT/altera/12.1/nios2eds/bin/gnu/H-i686-pc-linux-gnu/bin/../lib/gcc/nios2-elf/4.1.2/../../../../nios2-elf/lib/libc.a(lib_a-int_errno.o)
 .debug_abbrev  0x00002621      0x1ed /OPT/altera/12.1/nios2eds/bin/gnu/H-i686-pc-linux-gnu/bin/../lib/gcc/nios2-elf/4.1.2/../../../../nios2-elf/lib/libc.a(lib_a-locale.o)
 .debug_abbrev  0x0000280e      0x197 /OPT/altera/12.1/nios2eds/bin/gnu/H-i686-pc-linux-gnu/bin/../lib/gcc/nios2-elf/4.1.2/../../../../nios2-elf/lib/libc.a(lib_a-makebuf.o)
 .debug_abbrev  0x000029a5       0xb5 /OPT/altera/12.1/nios2eds/bin/gnu/H-i686-pc-linux-gnu/bin/../lib/gcc/nios2-elf/4.1.2/../../../../nios2-elf/lib/libc.a(lib_a-memchr.o)
 .debug_abbrev  0x00002a5a       0xb5 /OPT/altera/12.1/nios2eds/bin/gnu/H-i686-pc-linux-gnu/bin/../lib/gcc/nios2-elf/4.1.2/../../../../nios2-elf/lib/libc.a(lib_a-memcpy.o)
 .debug_abbrev  0x00002b0f       0xb5 /OPT/altera/12.1/nios2eds/bin/gnu/H-i686-pc-linux-gnu/bin/../lib/gcc/nios2-elf/4.1.2/../../../../nios2-elf/lib/libc.a(lib_a-memmove.o)
 .debug_abbrev  0x00002bc4       0xb8 /OPT/altera/12.1/nios2eds/bin/gnu/H-i686-pc-linux-gnu/bin/../lib/gcc/nios2-elf/4.1.2/../../../../nios2-elf/lib/libc.a(lib_a-memset.o)
 .debug_abbrev  0x00002c7c      0x297 /OPT/altera/12.1/nios2eds/bin/gnu/H-i686-pc-linux-gnu/bin/../lib/gcc/nios2-elf/4.1.2/../../../../nios2-elf/lib/libc.a(lib_a-mprec.o)
 .debug_abbrev  0x00002f13      0x1c3 /OPT/altera/12.1/nios2eds/bin/gnu/H-i686-pc-linux-gnu/bin/../lib/gcc/nios2-elf/4.1.2/../../../../nios2-elf/lib/libc.a(lib_a-reallocr.o)
 .debug_abbrev  0x000030d6       0x79 /OPT/altera/12.1/nios2eds/bin/gnu/H-i686-pc-linux-gnu/bin/../lib/gcc/nios2-elf/4.1.2/../../../../nios2-elf/lib/libc.a(lib_a-s_isinfd.o)
 .debug_abbrev  0x0000314f       0x79 /OPT/altera/12.1/nios2eds/bin/gnu/H-i686-pc-linux-gnu/bin/../lib/gcc/nios2-elf/4.1.2/../../../../nios2-elf/lib/libc.a(lib_a-s_isnand.o)
 .debug_abbrev  0x000031c8      0x191 /OPT/altera/12.1/nios2eds/bin/gnu/H-i686-pc-linux-gnu/bin/../lib/gcc/nios2-elf/4.1.2/../../../../nios2-elf/lib/libc.a(lib_a-sprintf.o)
 .debug_abbrev  0x00003359      0x1c9 /OPT/altera/12.1/nios2eds/bin/gnu/H-i686-pc-linux-gnu/bin/../lib/gcc/nios2-elf/4.1.2/../../../../nios2-elf/lib/libc.a(lib_a-stdio.o)
 .debug_abbrev  0x00003522       0x80 /OPT/altera/12.1/nios2eds/bin/gnu/H-i686-pc-linux-gnu/bin/../lib/gcc/nios2-elf/4.1.2/../../../../nios2-elf/lib/libc.a(lib_a-strcmp.o)
 .debug_abbrev  0x000035a2      0x184 /OPT/altera/12.1/nios2eds/bin/gnu/H-i686-pc-linux-gnu/bin/../lib/gcc/nios2-elf/4.1.2/../../../../nios2-elf/lib/libc.a(lib_a-writer.o)
 .debug_abbrev  0x00003726      0x1b8 /OPT/altera/12.1/nios2eds/bin/gnu/H-i686-pc-linux-gnu/bin/../lib/gcc/nios2-elf/4.1.2/../../../../nios2-elf/lib/libc.a(lib_a-callocr.o)
 .debug_abbrev  0x000038de      0x17f /OPT/altera/12.1/nios2eds/bin/gnu/H-i686-pc-linux-gnu/bin/../lib/gcc/nios2-elf/4.1.2/../../../../nios2-elf/lib/libc.a(lib_a-closer.o)
 .debug_abbrev  0x00003a5d      0x1a7 /OPT/altera/12.1/nios2eds/bin/gnu/H-i686-pc-linux-gnu/bin/../lib/gcc/nios2-elf/4.1.2/../../../../nios2-elf/lib/libc.a(lib_a-fclose.o)
 .debug_abbrev  0x00003c04      0x18e /OPT/altera/12.1/nios2eds/bin/gnu/H-i686-pc-linux-gnu/bin/../lib/gcc/nios2-elf/4.1.2/../../../../nios2-elf/lib/libc.a(lib_a-fstatr.o)
 .debug_abbrev  0x00003d92      0x17f /OPT/altera/12.1/nios2eds/bin/gnu/H-i686-pc-linux-gnu/bin/../lib/gcc/nios2-elf/4.1.2/../../../../nios2-elf/lib/libc.a(lib_a-isattyr.o)
 .debug_abbrev  0x00003f11      0x18e /OPT/altera/12.1/nios2eds/bin/gnu/H-i686-pc-linux-gnu/bin/../lib/gcc/nios2-elf/4.1.2/../../../../nios2-elf/lib/libc.a(lib_a-lseekr.o)
 .debug_abbrev  0x0000409f      0x17f /OPT/altera/12.1/nios2eds/bin/gnu/H-i686-pc-linux-gnu/bin/../lib/gcc/nios2-elf/4.1.2/../../../../nios2-elf/lib/libc.a(lib_a-readr.o)
 .debug_abbrev  0x0000421e      0x16b /OPT/altera/12.1/nios2eds/bin/gnu/H-i686-pc-linux-gnu/bin/../lib/gcc/nios2-elf/4.1.2/libgcc.a(_udivdi3.o)
 .debug_abbrev  0x00004389      0x18e /OPT/altera/12.1/nios2eds/bin/gnu/H-i686-pc-linux-gnu/bin/../lib/gcc/nios2-elf/4.1.2/libgcc.a(_umoddi3.o)
 .debug_abbrev  0x00004517      0x1d2 /OPT/altera/12.1/nios2eds/bin/gnu/H-i686-pc-linux-gnu/bin/../lib/gcc/nios2-elf/4.1.2/libgcc.a(_addsub_df.o)
 .debug_abbrev  0x000046e9      0x204 /OPT/altera/12.1/nios2eds/bin/gnu/H-i686-pc-linux-gnu/bin/../lib/gcc/nios2-elf/4.1.2/libgcc.a(_mul_df.o)
 .debug_abbrev  0x000048ed      0x1e3 /OPT/altera/12.1/nios2eds/bin/gnu/H-i686-pc-linux-gnu/bin/../lib/gcc/nios2-elf/4.1.2/libgcc.a(_div_df.o)
 .debug_abbrev  0x00004ad0      0x151 /OPT/altera/12.1/nios2eds/bin/gnu/H-i686-pc-linux-gnu/bin/../lib/gcc/nios2-elf/4.1.2/libgcc.a(_eq_df.o)
 .debug_abbrev  0x00004c21      0x151 /OPT/altera/12.1/nios2eds/bin/gnu/H-i686-pc-linux-gnu/bin/../lib/gcc/nios2-elf/4.1.2/libgcc.a(_ne_df.o)
 .debug_abbrev  0x00004d72      0x151 /OPT/altera/12.1/nios2eds/bin/gnu/H-i686-pc-linux-gnu/bin/../lib/gcc/nios2-elf/4.1.2/libgcc.a(_gt_df.o)
 .debug_abbrev  0x00004ec3      0x151 /OPT/altera/12.1/nios2eds/bin/gnu/H-i686-pc-linux-gnu/bin/../lib/gcc/nios2-elf/4.1.2/libgcc.a(_ge_df.o)
 .debug_abbrev  0x00005014      0x151 /OPT/altera/12.1/nios2eds/bin/gnu/H-i686-pc-linux-gnu/bin/../lib/gcc/nios2-elf/4.1.2/libgcc.a(_lt_df.o)
 .debug_abbrev  0x00005165      0x13f /OPT/altera/12.1/nios2eds/bin/gnu/H-i686-pc-linux-gnu/bin/../lib/gcc/nios2-elf/4.1.2/libgcc.a(_si_to_df.o)
 .debug_abbrev  0x000052a4      0x176 /OPT/altera/12.1/nios2eds/bin/gnu/H-i686-pc-linux-gnu/bin/../lib/gcc/nios2-elf/4.1.2/libgcc.a(_df_to_si.o)
 .debug_abbrev  0x0000541a       0xba /OPT/altera/12.1/nios2eds/bin/gnu/H-i686-pc-linux-gnu/bin/../lib/gcc/nios2-elf/4.1.2/libgcc.a(_thenan_df.o)
 .debug_abbrev  0x000054d4      0x155 /OPT/altera/12.1/nios2eds/bin/gnu/H-i686-pc-linux-gnu/bin/../lib/gcc/nios2-elf/4.1.2/libgcc.a(_usi_to_df.o)
 .debug_abbrev  0x00005629       0xe0 /OPT/altera/12.1/nios2eds/bin/gnu/H-i686-pc-linux-gnu/bin/../lib/gcc/nios2-elf/4.1.2/libgcc.a(lib2-divmod.o)
 .debug_abbrev  0x00005709       0xee /OPT/altera/12.1/nios2eds/bin/gnu/H-i686-pc-linux-gnu/bin/../lib/gcc/nios2-elf/4.1.2/libgcc.a(_muldi3.o)
 .debug_abbrev  0x000057f7       0x61 /OPT/altera/12.1/nios2eds/bin/gnu/H-i686-pc-linux-gnu/bin/../lib/gcc/nios2-elf/4.1.2/libgcc.a(_clz.o)
 .debug_abbrev  0x00005858       0xb9 /OPT/altera/12.1/nios2eds/bin/gnu/H-i686-pc-linux-gnu/bin/../lib/gcc/nios2-elf/4.1.2/libgcc.a(_clzsi2.o)
 .debug_abbrev  0x00005911      0x1b1 /OPT/altera/12.1/nios2eds/bin/gnu/H-i686-pc-linux-gnu/bin/../lib/gcc/nios2-elf/4.1.2/libgcc.a(_pack_df.o)
 .debug_abbrev  0x00005ac2      0x149 /OPT/altera/12.1/nios2eds/bin/gnu/H-i686-pc-linux-gnu/bin/../lib/gcc/nios2-elf/4.1.2/libgcc.a(_unpack_df.o)
 .debug_abbrev  0x00005c0b      0x132 /OPT/altera/12.1/nios2eds/bin/gnu/H-i686-pc-linux-gnu/bin/../lib/gcc/nios2-elf/4.1.2/libgcc.a(_fpcmp_parts_df.o)
 .debug_abbrev  0x00005d3d      0x102 ../vga_bsp//libucosii_bsp.a(alt_close.o)
 .debug_abbrev  0x00005e3f      0x10a ../vga_bsp//libucosii_bsp.a(alt_dev.o)
 .debug_abbrev  0x00005f49       0x5e ../vga_bsp//libucosii_bsp.a(alt_errno.o)
 .debug_abbrev  0x00005fa7      0x102 ../vga_bsp//libucosii_bsp.a(alt_fstat.o)
 .debug_abbrev  0x000060a9       0xe5 ../vga_bsp//libucosii_bsp.a(alt_gettod.o)
 .debug_abbrev  0x0000618e      0x102 ../vga_bsp//libucosii_bsp.a(alt_isatty.o)
 .debug_abbrev  0x00006290       0x88 ../vga_bsp//libucosii_bsp.a(alt_load.o)
 .debug_abbrev  0x00006318      0x102 ../vga_bsp//libucosii_bsp.a(alt_lseek.o)
 .debug_abbrev  0x0000641a      0x120 ../vga_bsp//libucosii_bsp.a(alt_main.o)
 .debug_abbrev  0x0000653a      0x102 ../vga_bsp//libucosii_bsp.a(alt_read.o)
 .debug_abbrev  0x0000663c       0xd3 ../vga_bsp//libucosii_bsp.a(alt_release_fd.o)
 .debug_abbrev  0x0000670f      0x115 ../vga_bsp//libucosii_bsp.a(alt_sbrk.o)
 .debug_abbrev  0x00006824      0x150 ../vga_bsp//libucosii_bsp.a(alt_tick.o)
 .debug_abbrev  0x00006974      0x107 ../vga_bsp//libucosii_bsp.a(alt_write.o)
 .debug_abbrev  0x00006a7b      0x1b3 ../vga_bsp//libucosii_bsp.a(alt_env_lock.o)
 .debug_abbrev  0x00006c2e      0x234 ../vga_bsp//libucosii_bsp.a(alt_malloc_lock.o)
 .debug_abbrev  0x00006e62      0x2aa ../vga_bsp//libucosii_bsp.a(os_core.o)
 .debug_abbrev  0x0000710c      0x114 ../vga_bsp//libucosii_bsp.a(os_dbg.o)
 .debug_abbrev  0x00007220      0x21b ../vga_bsp//libucosii_bsp.a(os_flag.o)
 .debug_abbrev  0x0000743b      0x235 ../vga_bsp//libucosii_bsp.a(os_mem.o)
 .debug_abbrev  0x00007670      0x20d ../vga_bsp//libucosii_bsp.a(os_q.o)
 .debug_abbrev  0x0000787d      0x20d ../vga_bsp//libucosii_bsp.a(os_sem.o)
 .debug_abbrev  0x00007a8a      0x20e ../vga_bsp//libucosii_bsp.a(os_task.o)
 .debug_abbrev  0x00007c98      0x1de ../vga_bsp//libucosii_bsp.a(os_time.o)
 .debug_abbrev  0x00007e76      0x197 ../vga_bsp//libucosii_bsp.a(alt_sys_init.o)
 .debug_abbrev  0x0000800d      0x13c ../vga_bsp//libucosii_bsp.a(altera_avalon_jtag_uart_fd.o)
 .debug_abbrev  0x00008149      0x21e ../vga_bsp//libucosii_bsp.a(altera_avalon_jtag_uart_init.o)
 .debug_abbrev  0x00008367      0x135 ../vga_bsp//libucosii_bsp.a(altera_avalon_jtag_uart_ioctl.o)
 .debug_abbrev  0x0000849c      0x1ee ../vga_bsp//libucosii_bsp.a(altera_avalon_jtag_uart_read.o)
 .debug_abbrev  0x0000868a      0x1ea ../vga_bsp//libucosii_bsp.a(altera_avalon_jtag_uart_write.o)
 .debug_abbrev  0x00008874      0x137 ../vga_bsp//libucosii_bsp.a(altera_avalon_timer_sc.o)
 .debug_abbrev  0x000089ab      0x127 ../vga_bsp//libucosii_bsp.a(altera_up_avalon_character_lcd.o)
 .debug_abbrev  0x00008ad2      0x19d ../vga_bsp//libucosii_bsp.a(altera_up_avalon_video_pixel_buffer_dma.o)
 .debug_abbrev  0x00008c6f      0x1f9 ../vga_bsp//libucosii_bsp.a(altera_up_sd_card_avalon_interface.o)
 .debug_abbrev  0x00008e68      0x172 ../vga_bsp//libucosii_bsp.a(alt_alarm_start.o)
 .debug_abbrev  0x00008fda       0x57 ../vga_bsp//libucosii_bsp.a(alt_dcache_flush_all.o)
 .debug_abbrev  0x00009031       0xf6 ../vga_bsp//libucosii_bsp.a(alt_dev_llist_insert.o)
 .debug_abbrev  0x00009127       0x76 ../vga_bsp//libucosii_bsp.a(alt_do_ctors.o)
 .debug_abbrev  0x0000919d       0x76 ../vga_bsp//libucosii_bsp.a(alt_do_dtors.o)
 .debug_abbrev  0x00009213       0xd6 ../vga_bsp//libucosii_bsp.a(alt_find_dev.o)
 .debug_abbrev  0x000092e9       0x3f ../vga_bsp//libucosii_bsp.a(alt_icache_flush_all.o)
 .debug_abbrev  0x00009328      0x134 ../vga_bsp//libucosii_bsp.a(alt_iic.o)
 .debug_abbrev  0x0000945c      0x14e ../vga_bsp//libucosii_bsp.a(alt_iic_isr_register.o)
 .debug_abbrev  0x000095aa       0xf7 ../vga_bsp//libucosii_bsp.a(alt_io_redirect.o)
 .debug_abbrev  0x000096a1       0x12 ../vga_bsp//libucosii_bsp.a(alt_irq_entry.o)
 .debug_abbrev  0x000096b3      0x124 ../vga_bsp//libucosii_bsp.a(alt_irq_handler.o)
 .debug_abbrev  0x000097d7       0x44 ../vga_bsp//libucosii_bsp.a(alt_irq_vars.o)
 .debug_abbrev  0x0000981b      0x119 ../vga_bsp//libucosii_bsp.a(alt_open.o)
 .debug_abbrev  0x00009934       0x3f ../vga_bsp//libucosii_bsp.a(altera_nios2_qsys_irq.o)
 .debug_abbrev  0x00009973       0x14 ../vga_bsp//libucosii_bsp.a(os_cpu_a.o)
 .debug_abbrev  0x00009987      0x1d0 ../vga_bsp//libucosii_bsp.a(os_cpu_c.o)
 .debug_abbrev  0x00009b57       0x12 ../vga_bsp//libucosii_bsp.a(alt_exception_entry.o)
 .debug_abbrev  0x00009b69       0xd6 ../vga_bsp//libucosii_bsp.a(alt_find_file.o)
 .debug_abbrev  0x00009c3f      0x173 ../vga_bsp//libucosii_bsp.a(alt_get_fd.o)
 .debug_abbrev  0x00009db2       0x7a ../vga_bsp//libucosii_bsp.a(alt_icache_flush.o)
 .debug_abbrev  0x00009e2c       0xb7 /OPT/altera/12.1/nios2eds/bin/gnu/H-i686-pc-linux-gnu/bin/../lib/gcc/nios2-elf/4.1.2/../../../../nios2-elf/lib/libc.a(lib_a-atexit.o)
 .debug_abbrev  0x00009ee3      0x16e /OPT/altera/12.1/nios2eds/bin/gnu/H-i686-pc-linux-gnu/bin/../lib/gcc/nios2-elf/4.1.2/../../../../nios2-elf/lib/libc.a(lib_a-exit.o)
 .debug_abbrev  0x0000a051       0x7c /OPT/altera/12.1/nios2eds/bin/gnu/H-i686-pc-linux-gnu/bin/../lib/gcc/nios2-elf/4.1.2/../../../../nios2-elf/lib/libc.a(lib_a-memcmp.o)
 .debug_abbrev  0x0000a0cd      0x1ae /OPT/altera/12.1/nios2eds/bin/gnu/H-i686-pc-linux-gnu/bin/../lib/gcc/nios2-elf/4.1.2/../../../../nios2-elf/lib/libc.a(lib_a-__atexit.o)
 .debug_abbrev  0x0000a27b      0x1de /OPT/altera/12.1/nios2eds/bin/gnu/H-i686-pc-linux-gnu/bin/../lib/gcc/nios2-elf/4.1.2/../../../../nios2-elf/lib/libc.a(lib_a-__call_atexit.o)
 .debug_abbrev  0x0000a459       0xaa ../vga_bsp//libucosii_bsp.a(alt_exit.o)

.debug_line     0x00000000    0x20232
 *(.debug_line)
 .debug_line    0x00000000       0x72 ../vga_bsp//obj/HAL/src/crt0.o
 .debug_line    0x00000072      0x4d8 obj/default/hello_ucosii.o
 .debug_line    0x0000054a      0x209 /OPT/altera/12.1/nios2eds/bin/gnu/H-i686-pc-linux-gnu/bin/../lib/gcc/nios2-elf/4.1.2/../../../../nios2-elf/lib/libc.a(lib_a-ctime.o)
 .debug_line    0x00000753      0x20b /OPT/altera/12.1/nios2eds/bin/gnu/H-i686-pc-linux-gnu/bin/../lib/gcc/nios2-elf/4.1.2/../../../../nios2-elf/lib/libc.a(lib_a-lcltime.o)
 .debug_line    0x0000095e      0x20d /OPT/altera/12.1/nios2eds/bin/gnu/H-i686-pc-linux-gnu/bin/../lib/gcc/nios2-elf/4.1.2/../../../../nios2-elf/lib/libc.a(lib_a-lcltime_r.o)
 .debug_line    0x00000b6b      0x24b /OPT/altera/12.1/nios2eds/bin/gnu/H-i686-pc-linux-gnu/bin/../lib/gcc/nios2-elf/4.1.2/../../../../nios2-elf/lib/libc.a(lib_a-malloc.o)
 .debug_line    0x00000db6      0x80a /OPT/altera/12.1/nios2eds/bin/gnu/H-i686-pc-linux-gnu/bin/../lib/gcc/nios2-elf/4.1.2/../../../../nios2-elf/lib/libc.a(lib_a-mallocr.o)
 .debug_line    0x000015c0      0x80c /OPT/altera/12.1/nios2eds/bin/gnu/H-i686-pc-linux-gnu/bin/../lib/gcc/nios2-elf/4.1.2/../../../../nios2-elf/lib/libc.a(lib_a-mktm_r.o)
 .debug_line    0x00001dcc      0x29b /OPT/altera/12.1/nios2eds/bin/gnu/H-i686-pc-linux-gnu/bin/../lib/gcc/nios2-elf/4.1.2/../../../../nios2-elf/lib/libc.a(lib_a-printf.o)
 .debug_line    0x00002067      0x2f7 /OPT/altera/12.1/nios2eds/bin/gnu/H-i686-pc-linux-gnu/bin/../lib/gcc/nios2-elf/4.1.2/../../../../nios2-elf/lib/libc.a(lib_a-puts.o)
 .debug_line    0x0000235e      0x299 /OPT/altera/12.1/nios2eds/bin/gnu/H-i686-pc-linux-gnu/bin/../lib/gcc/nios2-elf/4.1.2/../../../../nios2-elf/lib/libc.a(lib_a-sbrkr.o)
 .debug_line    0x000025f7      0x26d /OPT/altera/12.1/nios2eds/bin/gnu/H-i686-pc-linux-gnu/bin/../lib/gcc/nios2-elf/4.1.2/../../../../nios2-elf/lib/libc.a(lib_a-strlen.o)
 .debug_line    0x00002864      0x247 /OPT/altera/12.1/nios2eds/bin/gnu/H-i686-pc-linux-gnu/bin/../lib/gcc/nios2-elf/4.1.2/../../../../nios2-elf/lib/libc.a(lib_a-time.o)
 .debug_line    0x00002aab      0x20a /OPT/altera/12.1/nios2eds/bin/gnu/H-i686-pc-linux-gnu/bin/../lib/gcc/nios2-elf/4.1.2/../../../../nios2-elf/lib/libc.a(lib_a-tzlock.o)
 .debug_line    0x00002cb5      0x1e8 /OPT/altera/12.1/nios2eds/bin/gnu/H-i686-pc-linux-gnu/bin/../lib/gcc/nios2-elf/4.1.2/../../../../nios2-elf/lib/libc.a(lib_a-tzvars.o)
 .debug_line    0x00002e9d     0x110c /OPT/altera/12.1/nios2eds/bin/gnu/H-i686-pc-linux-gnu/bin/../lib/gcc/nios2-elf/4.1.2/../../../../nios2-elf/lib/libc.a(lib_a-vfprintf.o)
 .debug_line    0x00003fa9      0x2f0 /OPT/altera/12.1/nios2eds/bin/gnu/H-i686-pc-linux-gnu/bin/../lib/gcc/nios2-elf/4.1.2/../../../../nios2-elf/lib/libc.a(lib_a-wsetup.o)
 .debug_line    0x00004299      0x20b /OPT/altera/12.1/nios2eds/bin/gnu/H-i686-pc-linux-gnu/bin/../lib/gcc/nios2-elf/4.1.2/../../../../nios2-elf/lib/libc.a(lib_a-asctime.o)
 .debug_line    0x000044a4      0x25c /OPT/altera/12.1/nios2eds/bin/gnu/H-i686-pc-linux-gnu/bin/../lib/gcc/nios2-elf/4.1.2/../../../../nios2-elf/lib/libc.a(lib_a-asctime_r.o)
 .debug_line    0x00004700     0x12c6 /OPT/altera/12.1/nios2eds/bin/gnu/H-i686-pc-linux-gnu/bin/../lib/gcc/nios2-elf/4.1.2/../../../../nios2-elf/lib/libc.a(lib_a-dtoa.o)
 .debug_line    0x000059c6      0x40d /OPT/altera/12.1/nios2eds/bin/gnu/H-i686-pc-linux-gnu/bin/../lib/gcc/nios2-elf/4.1.2/../../../../nios2-elf/lib/libc.a(lib_a-fflush.o)
 .debug_line    0x00005dd3      0x601 /OPT/altera/12.1/nios2eds/bin/gnu/H-i686-pc-linux-gnu/bin/../lib/gcc/nios2-elf/4.1.2/../../../../nios2-elf/lib/libc.a(lib_a-findfp.o)
 .debug_line    0x000063d4      0x5eb /OPT/altera/12.1/nios2eds/bin/gnu/H-i686-pc-linux-gnu/bin/../lib/gcc/nios2-elf/4.1.2/../../../../nios2-elf/lib/libc.a(lib_a-freer.o)
 .debug_line    0x000069bf      0x641 /OPT/altera/12.1/nios2eds/bin/gnu/H-i686-pc-linux-gnu/bin/../lib/gcc/nios2-elf/4.1.2/../../../../nios2-elf/lib/libc.a(lib_a-fvwrite.o)
 .debug_line    0x00007000      0x34a /OPT/altera/12.1/nios2eds/bin/gnu/H-i686-pc-linux-gnu/bin/../lib/gcc/nios2-elf/4.1.2/../../../../nios2-elf/lib/libc.a(lib_a-fwalk.o)
 .debug_line    0x0000734a      0x27a /OPT/altera/12.1/nios2eds/bin/gnu/H-i686-pc-linux-gnu/bin/../lib/gcc/nios2-elf/4.1.2/../../../../nios2-elf/lib/libc.a(lib_a-gettimeofdayr.o)
 .debug_line    0x000075c4      0x1fd /OPT/altera/12.1/nios2eds/bin/gnu/H-i686-pc-linux-gnu/bin/../lib/gcc/nios2-elf/4.1.2/../../../../nios2-elf/lib/libc.a(lib_a-gettzinfo.o)
 .debug_line    0x000077c1      0x22d /OPT/altera/12.1/nios2eds/bin/gnu/H-i686-pc-linux-gnu/bin/../lib/gcc/nios2-elf/4.1.2/../../../../nios2-elf/lib/libc.a(lib_a-impure.o)
 .debug_line    0x000079ee      0x1df /OPT/altera/12.1/nios2eds/bin/gnu/H-i686-pc-linux-gnu/bin/../lib/gcc/nios2-elf/4.1.2/../../../../nios2-elf/lib/libc.a(lib_a-int_errno.o)
 .debug_line    0x00007bcd      0x2c8 /OPT/altera/12.1/nios2eds/bin/gnu/H-i686-pc-linux-gnu/bin/../lib/gcc/nios2-elf/4.1.2/../../../../nios2-elf/lib/libc.a(lib_a-locale.o)
 .debug_line    0x00007e95      0x3c3 /OPT/altera/12.1/nios2eds/bin/gnu/H-i686-pc-linux-gnu/bin/../lib/gcc/nios2-elf/4.1.2/../../../../nios2-elf/lib/libc.a(lib_a-makebuf.o)
 .debug_line    0x00008258      0x303 /OPT/altera/12.1/nios2eds/bin/gnu/H-i686-pc-linux-gnu/bin/../lib/gcc/nios2-elf/4.1.2/../../../../nios2-elf/lib/libc.a(lib_a-memchr.o)
 .debug_line    0x0000855b      0x1ac /OPT/altera/12.1/nios2eds/bin/gnu/H-i686-pc-linux-gnu/bin/../lib/gcc/nios2-elf/4.1.2/../../../../nios2-elf/lib/libc.a(lib_a-memcpy.o)
 .debug_line    0x00008707      0x30a /OPT/altera/12.1/nios2eds/bin/gnu/H-i686-pc-linux-gnu/bin/../lib/gcc/nios2-elf/4.1.2/../../../../nios2-elf/lib/libc.a(lib_a-memmove.o)
 .debug_line    0x00008a11      0x301 /OPT/altera/12.1/nios2eds/bin/gnu/H-i686-pc-linux-gnu/bin/../lib/gcc/nios2-elf/4.1.2/../../../../nios2-elf/lib/libc.a(lib_a-memset.o)
 .debug_line    0x00008d12     0x1243 /OPT/altera/12.1/nios2eds/bin/gnu/H-i686-pc-linux-gnu/bin/../lib/gcc/nios2-elf/4.1.2/../../../../nios2-elf/lib/libc.a(lib_a-mprec.o)
 .debug_line    0x00009f55      0x58a /OPT/altera/12.1/nios2eds/bin/gnu/H-i686-pc-linux-gnu/bin/../lib/gcc/nios2-elf/4.1.2/../../../../nios2-elf/lib/libc.a(lib_a-reallocr.o)
 .debug_line    0x0000a4df      0x222 /OPT/altera/12.1/nios2eds/bin/gnu/H-i686-pc-linux-gnu/bin/../lib/gcc/nios2-elf/4.1.2/../../../../nios2-elf/lib/libc.a(lib_a-s_isinfd.o)
 .debug_line    0x0000a701      0x21a /OPT/altera/12.1/nios2eds/bin/gnu/H-i686-pc-linux-gnu/bin/../lib/gcc/nios2-elf/4.1.2/../../../../nios2-elf/lib/libc.a(lib_a-s_isnand.o)
 .debug_line    0x0000a91b      0x322 /OPT/altera/12.1/nios2eds/bin/gnu/H-i686-pc-linux-gnu/bin/../lib/gcc/nios2-elf/4.1.2/../../../../nios2-elf/lib/libc.a(lib_a-sprintf.o)
 .debug_line    0x0000ac3d      0x38c /OPT/altera/12.1/nios2eds/bin/gnu/H-i686-pc-linux-gnu/bin/../lib/gcc/nios2-elf/4.1.2/../../../../nios2-elf/lib/libc.a(lib_a-stdio.o)
 .debug_line    0x0000afc9      0x2d5 /OPT/altera/12.1/nios2eds/bin/gnu/H-i686-pc-linux-gnu/bin/../lib/gcc/nios2-elf/4.1.2/../../../../nios2-elf/lib/libc.a(lib_a-strcmp.o)
 .debug_line    0x0000b29e      0x29a /OPT/altera/12.1/nios2eds/bin/gnu/H-i686-pc-linux-gnu/bin/../lib/gcc/nios2-elf/4.1.2/../../../../nios2-elf/lib/libc.a(lib_a-writer.o)
 .debug_line    0x0000b538      0x25c /OPT/altera/12.1/nios2eds/bin/gnu/H-i686-pc-linux-gnu/bin/../lib/gcc/nios2-elf/4.1.2/../../../../nios2-elf/lib/libc.a(lib_a-callocr.o)
 .debug_line    0x0000b794      0x29a /OPT/altera/12.1/nios2eds/bin/gnu/H-i686-pc-linux-gnu/bin/../lib/gcc/nios2-elf/4.1.2/../../../../nios2-elf/lib/libc.a(lib_a-closer.o)
 .debug_line    0x0000ba2e      0x2e8 /OPT/altera/12.1/nios2eds/bin/gnu/H-i686-pc-linux-gnu/bin/../lib/gcc/nios2-elf/4.1.2/../../../../nios2-elf/lib/libc.a(lib_a-fclose.o)
 .debug_line    0x0000bd16      0x264 /OPT/altera/12.1/nios2eds/bin/gnu/H-i686-pc-linux-gnu/bin/../lib/gcc/nios2-elf/4.1.2/../../../../nios2-elf/lib/libc.a(lib_a-fstatr.o)
 .debug_line    0x0000bf7a      0x29b /OPT/altera/12.1/nios2eds/bin/gnu/H-i686-pc-linux-gnu/bin/../lib/gcc/nios2-elf/4.1.2/../../../../nios2-elf/lib/libc.a(lib_a-isattyr.o)
 .debug_line    0x0000c215      0x29a /OPT/altera/12.1/nios2eds/bin/gnu/H-i686-pc-linux-gnu/bin/../lib/gcc/nios2-elf/4.1.2/../../../../nios2-elf/lib/libc.a(lib_a-lseekr.o)
 .debug_line    0x0000c4af      0x299 /OPT/altera/12.1/nios2eds/bin/gnu/H-i686-pc-linux-gnu/bin/../lib/gcc/nios2-elf/4.1.2/../../../../nios2-elf/lib/libc.a(lib_a-readr.o)
 .debug_line    0x0000c748      0x369 /OPT/altera/12.1/nios2eds/bin/gnu/H-i686-pc-linux-gnu/bin/../lib/gcc/nios2-elf/4.1.2/libgcc.a(_udivdi3.o)
 .debug_line    0x0000cab1      0x3f4 /OPT/altera/12.1/nios2eds/bin/gnu/H-i686-pc-linux-gnu/bin/../lib/gcc/nios2-elf/4.1.2/libgcc.a(_umoddi3.o)
 .debug_line    0x0000cea5      0x430 /OPT/altera/12.1/nios2eds/bin/gnu/H-i686-pc-linux-gnu/bin/../lib/gcc/nios2-elf/4.1.2/libgcc.a(_addsub_df.o)
 .debug_line    0x0000d2d5      0x3e5 /OPT/altera/12.1/nios2eds/bin/gnu/H-i686-pc-linux-gnu/bin/../lib/gcc/nios2-elf/4.1.2/libgcc.a(_mul_df.o)
 .debug_line    0x0000d6ba      0x301 /OPT/altera/12.1/nios2eds/bin/gnu/H-i686-pc-linux-gnu/bin/../lib/gcc/nios2-elf/4.1.2/libgcc.a(_div_df.o)
 .debug_line    0x0000d9bb      0x129 /OPT/altera/12.1/nios2eds/bin/gnu/H-i686-pc-linux-gnu/bin/../lib/gcc/nios2-elf/4.1.2/libgcc.a(_eq_df.o)
 .debug_line    0x0000dae4      0x129 /OPT/altera/12.1/nios2eds/bin/gnu/H-i686-pc-linux-gnu/bin/../lib/gcc/nios2-elf/4.1.2/libgcc.a(_ne_df.o)
 .debug_line    0x0000dc0d      0x129 /OPT/altera/12.1/nios2eds/bin/gnu/H-i686-pc-linux-gnu/bin/../lib/gcc/nios2-elf/4.1.2/libgcc.a(_gt_df.o)
 .debug_line    0x0000dd36      0x129 /OPT/altera/12.1/nios2eds/bin/gnu/H-i686-pc-linux-gnu/bin/../lib/gcc/nios2-elf/4.1.2/libgcc.a(_ge_df.o)
 .debug_line    0x0000de5f      0x129 /OPT/altera/12.1/nios2eds/bin/gnu/H-i686-pc-linux-gnu/bin/../lib/gcc/nios2-elf/4.1.2/libgcc.a(_lt_df.o)
 .debug_line    0x0000df88      0x175 /OPT/altera/12.1/nios2eds/bin/gnu/H-i686-pc-linux-gnu/bin/../lib/gcc/nios2-elf/4.1.2/libgcc.a(_si_to_df.o)
 .debug_line    0x0000e0fd      0x149 /OPT/altera/12.1/nios2eds/bin/gnu/H-i686-pc-linux-gnu/bin/../lib/gcc/nios2-elf/4.1.2/libgcc.a(_df_to_si.o)
 .debug_line    0x0000e246       0x94 /OPT/altera/12.1/nios2eds/bin/gnu/H-i686-pc-linux-gnu/bin/../lib/gcc/nios2-elf/4.1.2/libgcc.a(_thenan_df.o)
 .debug_line    0x0000e2da      0x189 /OPT/altera/12.1/nios2eds/bin/gnu/H-i686-pc-linux-gnu/bin/../lib/gcc/nios2-elf/4.1.2/libgcc.a(_usi_to_df.o)
 .debug_line    0x0000e463      0x2c6 /OPT/altera/12.1/nios2eds/bin/gnu/H-i686-pc-linux-gnu/bin/../lib/gcc/nios2-elf/4.1.2/libgcc.a(lib2-divmod.o)
 .debug_line    0x0000e729      0x196 /OPT/altera/12.1/nios2eds/bin/gnu/H-i686-pc-linux-gnu/bin/../lib/gcc/nios2-elf/4.1.2/libgcc.a(_muldi3.o)
 .debug_line    0x0000e8bf      0x121 /OPT/altera/12.1/nios2eds/bin/gnu/H-i686-pc-linux-gnu/bin/../lib/gcc/nios2-elf/4.1.2/libgcc.a(_clz.o)
 .debug_line    0x0000e9e0      0x17c /OPT/altera/12.1/nios2eds/bin/gnu/H-i686-pc-linux-gnu/bin/../lib/gcc/nios2-elf/4.1.2/libgcc.a(_clzsi2.o)
 .debug_line    0x0000eb5c      0x222 /OPT/altera/12.1/nios2eds/bin/gnu/H-i686-pc-linux-gnu/bin/../lib/gcc/nios2-elf/4.1.2/libgcc.a(_pack_df.o)
 .debug_line    0x0000ed7e      0x1e4 /OPT/altera/12.1/nios2eds/bin/gnu/H-i686-pc-linux-gnu/bin/../lib/gcc/nios2-elf/4.1.2/libgcc.a(_unpack_df.o)
 .debug_line    0x0000ef62      0x187 /OPT/altera/12.1/nios2eds/bin/gnu/H-i686-pc-linux-gnu/bin/../lib/gcc/nios2-elf/4.1.2/libgcc.a(_fpcmp_parts_df.o)
 .debug_line    0x0000f0e9      0x301 ../vga_bsp//libucosii_bsp.a(alt_close.o)
 .debug_line    0x0000f3ea      0x2c2 ../vga_bsp//libucosii_bsp.a(alt_dev.o)
 .debug_line    0x0000f6ac      0x1b2 ../vga_bsp//libucosii_bsp.a(alt_errno.o)
 .debug_line    0x0000f85e      0x309 ../vga_bsp//libucosii_bsp.a(alt_fstat.o)
 .debug_line    0x0000fb67      0x2fd ../vga_bsp//libucosii_bsp.a(alt_gettod.o)
 .debug_line    0x0000fe64      0x30a ../vga_bsp//libucosii_bsp.a(alt_isatty.o)
 .debug_line    0x0001016e      0x21f ../vga_bsp//libucosii_bsp.a(alt_load.o)
 .debug_line    0x0001038d      0x309 ../vga_bsp//libucosii_bsp.a(alt_lseek.o)
 .debug_line    0x00010696      0x351 ../vga_bsp//libucosii_bsp.a(alt_main.o)
 .debug_line    0x000109e7      0x330 ../vga_bsp//libucosii_bsp.a(alt_read.o)
 .debug_line    0x00010d17      0x281 ../vga_bsp//libucosii_bsp.a(alt_release_fd.o)
 .debug_line    0x00010f98      0x269 ../vga_bsp//libucosii_bsp.a(alt_sbrk.o)
 .debug_line    0x00011201      0x31e ../vga_bsp//libucosii_bsp.a(alt_tick.o)
 .debug_line    0x0001151f      0x331 ../vga_bsp//libucosii_bsp.a(alt_write.o)
 .debug_line    0x00011850      0x2c7 ../vga_bsp//libucosii_bsp.a(alt_env_lock.o)
 .debug_line    0x00011b17      0x383 ../vga_bsp//libucosii_bsp.a(alt_malloc_lock.o)
 .debug_line    0x00011e9a     0x166b ../vga_bsp//libucosii_bsp.a(os_core.o)
 .debug_line    0x00013505      0x390 ../vga_bsp//libucosii_bsp.a(os_dbg.o)
 .debug_line    0x00013895     0x11ef ../vga_bsp//libucosii_bsp.a(os_flag.o)
 .debug_line    0x00014a84      0x792 ../vga_bsp//libucosii_bsp.a(os_mem.o)
 .debug_line    0x00015216      0xe73 ../vga_bsp//libucosii_bsp.a(os_q.o)
 .debug_line    0x00016089      0xa2b ../vga_bsp//libucosii_bsp.a(os_sem.o)
 .debug_line    0x00016ab4     0x1134 ../vga_bsp//libucosii_bsp.a(os_task.o)
 .debug_line    0x00017be8      0x537 ../vga_bsp//libucosii_bsp.a(os_time.o)
 .debug_line    0x0001811f      0x392 ../vga_bsp//libucosii_bsp.a(alt_sys_init.o)
 .debug_line    0x000184b1      0x321 ../vga_bsp//libucosii_bsp.a(altera_avalon_jtag_uart_fd.o)
 .debug_line    0x000187d2      0x5a0 ../vga_bsp//libucosii_bsp.a(altera_avalon_jtag_uart_init.o)
 .debug_line    0x00018d72      0x35e ../vga_bsp//libucosii_bsp.a(altera_avalon_jtag_uart_ioctl.o)
 .debug_line    0x000190d0      0x49c ../vga_bsp//libucosii_bsp.a(altera_avalon_jtag_uart_read.o)
 .debug_line    0x0001956c      0x4aa ../vga_bsp//libucosii_bsp.a(altera_avalon_jtag_uart_write.o)
 .debug_line    0x00019a16      0x2bb ../vga_bsp//libucosii_bsp.a(altera_avalon_timer_sc.o)
 .debug_line    0x00019cd1      0x4cd ../vga_bsp//libucosii_bsp.a(altera_up_avalon_character_lcd.o)
 .debug_line    0x0001a19e      0xbf7 ../vga_bsp//libucosii_bsp.a(altera_up_avalon_video_pixel_buffer_dma.o)
 .debug_line    0x0001ad95     0x1a5c ../vga_bsp//libucosii_bsp.a(altera_up_sd_card_avalon_interface.o)
 .debug_line    0x0001c7f1      0x2e4 ../vga_bsp//libucosii_bsp.a(alt_alarm_start.o)
 .debug_line    0x0001cad5      0x1d5 ../vga_bsp//libucosii_bsp.a(alt_dcache_flush_all.o)
 .debug_line    0x0001ccaa      0x262 ../vga_bsp//libucosii_bsp.a(alt_dev_llist_insert.o)
 .debug_line    0x0001cf0c       0x83 ../vga_bsp//libucosii_bsp.a(alt_do_ctors.o)
 .debug_line    0x0001cf8f       0x83 ../vga_bsp//libucosii_bsp.a(alt_do_dtors.o)
 .debug_line    0x0001d012      0x2e2 ../vga_bsp//libucosii_bsp.a(alt_find_dev.o)
 .debug_line    0x0001d2f4      0x1c5 ../vga_bsp//libucosii_bsp.a(alt_icache_flush_all.o)
 .debug_line    0x0001d4b9      0x2d0 ../vga_bsp//libucosii_bsp.a(alt_iic.o)
 .debug_line    0x0001d789      0x251 ../vga_bsp//libucosii_bsp.a(alt_iic_isr_register.o)
 .debug_line    0x0001d9da      0x32b ../vga_bsp//libucosii_bsp.a(alt_io_redirect.o)
 .debug_line    0x0001dd05       0x6b ../vga_bsp//libucosii_bsp.a(alt_irq_entry.o)
 .debug_line    0x0001dd70      0x2cc ../vga_bsp//libucosii_bsp.a(alt_irq_handler.o)
 .debug_line    0x0001e03c       0x72 ../vga_bsp//libucosii_bsp.a(alt_irq_vars.o)
 .debug_line    0x0001e0ae      0x367 ../vga_bsp//libucosii_bsp.a(alt_open.o)
 .debug_line    0x0001e415      0x1d6 ../vga_bsp//libucosii_bsp.a(altera_nios2_qsys_irq.o)
 .debug_line    0x0001e5eb       0x86 ../vga_bsp//libucosii_bsp.a(os_cpu_a.o)
 .debug_line    0x0001e671      0x330 ../vga_bsp//libucosii_bsp.a(os_cpu_c.o)
 .debug_line    0x0001e9a1       0xab ../vga_bsp//libucosii_bsp.a(alt_exception_entry.o)
 .debug_line    0x0001ea4c      0x2f3 ../vga_bsp//libucosii_bsp.a(alt_find_file.o)
 .debug_line    0x0001ed3f      0x323 ../vga_bsp//libucosii_bsp.a(alt_get_fd.o)
 .debug_line    0x0001f062      0x201 ../vga_bsp//libucosii_bsp.a(alt_icache_flush.o)
 .debug_line    0x0001f263      0x200 /OPT/altera/12.1/nios2eds/bin/gnu/H-i686-pc-linux-gnu/bin/../lib/gcc/nios2-elf/4.1.2/../../../../nios2-elf/lib/libc.a(lib_a-atexit.o)
 .debug_line    0x0001f463      0x238 /OPT/altera/12.1/nios2eds/bin/gnu/H-i686-pc-linux-gnu/bin/../lib/gcc/nios2-elf/4.1.2/../../../../nios2-elf/lib/libc.a(lib_a-exit.o)
 .debug_line    0x0001f69b      0x29f /OPT/altera/12.1/nios2eds/bin/gnu/H-i686-pc-linux-gnu/bin/../lib/gcc/nios2-elf/4.1.2/../../../../nios2-elf/lib/libc.a(lib_a-memcmp.o)
 .debug_line    0x0001f93a      0x313 /OPT/altera/12.1/nios2eds/bin/gnu/H-i686-pc-linux-gnu/bin/../lib/gcc/nios2-elf/4.1.2/../../../../nios2-elf/lib/libc.a(lib_a-__atexit.o)
 .debug_line    0x0001fc4d      0x367 /OPT/altera/12.1/nios2eds/bin/gnu/H-i686-pc-linux-gnu/bin/../lib/gcc/nios2-elf/4.1.2/../../../../nios2-elf/lib/libc.a(lib_a-__call_atexit.o)
 .debug_line    0x0001ffb4      0x27e ../vga_bsp//libucosii_bsp.a(alt_exit.o)

.debug_frame    0x00000000     0x2d48
 *(.debug_frame)
 .debug_frame   0x00000000       0x68 obj/default/hello_ucosii.o
 .debug_frame   0x00000068       0x28 /OPT/altera/12.1/nios2eds/bin/gnu/H-i686-pc-linux-gnu/bin/../lib/gcc/nios2-elf/4.1.2/../../../../nios2-elf/lib/libc.a(lib_a-ctime.o)
 .debug_frame   0x00000090       0x20 /OPT/altera/12.1/nios2eds/bin/gnu/H-i686-pc-linux-gnu/bin/../lib/gcc/nios2-elf/4.1.2/../../../../nios2-elf/lib/libc.a(lib_a-lcltime.o)
 .debug_frame   0x000000b0       0x20 /OPT/altera/12.1/nios2eds/bin/gnu/H-i686-pc-linux-gnu/bin/../lib/gcc/nios2-elf/4.1.2/../../../../nios2-elf/lib/libc.a(lib_a-lcltime_r.o)
 .debug_frame   0x000000d0       0x30 /OPT/altera/12.1/nios2eds/bin/gnu/H-i686-pc-linux-gnu/bin/../lib/gcc/nios2-elf/4.1.2/../../../../nios2-elf/lib/libc.a(lib_a-malloc.o)
 .debug_frame   0x00000100       0x38 /OPT/altera/12.1/nios2eds/bin/gnu/H-i686-pc-linux-gnu/bin/../lib/gcc/nios2-elf/4.1.2/../../../../nios2-elf/lib/libc.a(lib_a-mallocr.o)
 .debug_frame   0x00000138       0x64 /OPT/altera/12.1/nios2eds/bin/gnu/H-i686-pc-linux-gnu/bin/../lib/gcc/nios2-elf/4.1.2/../../../../nios2-elf/lib/libc.a(lib_a-mktm_r.o)
 .debug_frame   0x0000019c       0x40 /OPT/altera/12.1/nios2eds/bin/gnu/H-i686-pc-linux-gnu/bin/../lib/gcc/nios2-elf/4.1.2/../../../../nios2-elf/lib/libc.a(lib_a-printf.o)
 .debug_frame   0x000001dc       0x3c /OPT/altera/12.1/nios2eds/bin/gnu/H-i686-pc-linux-gnu/bin/../lib/gcc/nios2-elf/4.1.2/../../../../nios2-elf/lib/libc.a(lib_a-puts.o)
 .debug_frame   0x00000218       0x2c /OPT/altera/12.1/nios2eds/bin/gnu/H-i686-pc-linux-gnu/bin/../lib/gcc/nios2-elf/4.1.2/../../../../nios2-elf/lib/libc.a(lib_a-sbrkr.o)
 .debug_frame   0x00000244       0x20 /OPT/altera/12.1/nios2eds/bin/gnu/H-i686-pc-linux-gnu/bin/../lib/gcc/nios2-elf/4.1.2/../../../../nios2-elf/lib/libc.a(lib_a-strlen.o)
 .debug_frame   0x00000264       0x2c /OPT/altera/12.1/nios2eds/bin/gnu/H-i686-pc-linux-gnu/bin/../lib/gcc/nios2-elf/4.1.2/../../../../nios2-elf/lib/libc.a(lib_a-time.o)
 .debug_frame   0x00000290       0x30 /OPT/altera/12.1/nios2eds/bin/gnu/H-i686-pc-linux-gnu/bin/../lib/gcc/nios2-elf/4.1.2/../../../../nios2-elf/lib/libc.a(lib_a-tzlock.o)
 .debug_frame   0x000002c0       0x64 /OPT/altera/12.1/nios2eds/bin/gnu/H-i686-pc-linux-gnu/bin/../lib/gcc/nios2-elf/4.1.2/../../../../nios2-elf/lib/libc.a(lib_a-vfprintf.o)
 .debug_frame   0x00000324       0x2c /OPT/altera/12.1/nios2eds/bin/gnu/H-i686-pc-linux-gnu/bin/../lib/gcc/nios2-elf/4.1.2/../../../../nios2-elf/lib/libc.a(lib_a-wsetup.o)
 .debug_frame   0x00000350       0x20 /OPT/altera/12.1/nios2eds/bin/gnu/H-i686-pc-linux-gnu/bin/../lib/gcc/nios2-elf/4.1.2/../../../../nios2-elf/lib/libc.a(lib_a-asctime.o)
 .debug_frame   0x00000370       0x2c /OPT/altera/12.1/nios2eds/bin/gnu/H-i686-pc-linux-gnu/bin/../lib/gcc/nios2-elf/4.1.2/../../../../nios2-elf/lib/libc.a(lib_a-asctime_r.o)
 .debug_frame   0x0000039c       0x64 /OPT/altera/12.1/nios2eds/bin/gnu/H-i686-pc-linux-gnu/bin/../lib/gcc/nios2-elf/4.1.2/../../../../nios2-elf/lib/libc.a(lib_a-dtoa.o)
 .debug_frame   0x00000400       0x40 /OPT/altera/12.1/nios2eds/bin/gnu/H-i686-pc-linux-gnu/bin/../lib/gcc/nios2-elf/4.1.2/../../../../nios2-elf/lib/libc.a(lib_a-fflush.o)
 .debug_frame   0x00000440      0x118 /OPT/altera/12.1/nios2eds/bin/gnu/H-i686-pc-linux-gnu/bin/../lib/gcc/nios2-elf/4.1.2/../../../../nios2-elf/lib/libc.a(lib_a-findfp.o)
 .debug_frame   0x00000558       0x4c /OPT/altera/12.1/nios2eds/bin/gnu/H-i686-pc-linux-gnu/bin/../lib/gcc/nios2-elf/4.1.2/../../../../nios2-elf/lib/libc.a(lib_a-freer.o)
 .debug_frame   0x000005a4       0x38 /OPT/altera/12.1/nios2eds/bin/gnu/H-i686-pc-linux-gnu/bin/../lib/gcc/nios2-elf/4.1.2/../../../../nios2-elf/lib/libc.a(lib_a-fvwrite.o)
 .debug_frame   0x000005dc       0x60 /OPT/altera/12.1/nios2eds/bin/gnu/H-i686-pc-linux-gnu/bin/../lib/gcc/nios2-elf/4.1.2/../../../../nios2-elf/lib/libc.a(lib_a-fwalk.o)
 .debug_frame   0x0000063c       0x2c /OPT/altera/12.1/nios2eds/bin/gnu/H-i686-pc-linux-gnu/bin/../lib/gcc/nios2-elf/4.1.2/../../../../nios2-elf/lib/libc.a(lib_a-gettimeofdayr.o)
 .debug_frame   0x00000668       0x20 /OPT/altera/12.1/nios2eds/bin/gnu/H-i686-pc-linux-gnu/bin/../lib/gcc/nios2-elf/4.1.2/../../../../nios2-elf/lib/libc.a(lib_a-gettzinfo.o)
 .debug_frame   0x00000688       0x70 /OPT/altera/12.1/nios2eds/bin/gnu/H-i686-pc-linux-gnu/bin/../lib/gcc/nios2-elf/4.1.2/../../../../nios2-elf/lib/libc.a(lib_a-locale.o)
 .debug_frame   0x000006f8       0x2c /OPT/altera/12.1/nios2eds/bin/gnu/H-i686-pc-linux-gnu/bin/../lib/gcc/nios2-elf/4.1.2/../../../../nios2-elf/lib/libc.a(lib_a-makebuf.o)
 .debug_frame   0x00000724       0x20 /OPT/altera/12.1/nios2eds/bin/gnu/H-i686-pc-linux-gnu/bin/../lib/gcc/nios2-elf/4.1.2/../../../../nios2-elf/lib/libc.a(lib_a-memchr.o)
 .debug_frame   0x00000744       0x20 /OPT/altera/12.1/nios2eds/bin/gnu/H-i686-pc-linux-gnu/bin/../lib/gcc/nios2-elf/4.1.2/../../../../nios2-elf/lib/libc.a(lib_a-memcpy.o)
 .debug_frame   0x00000764       0x20 /OPT/altera/12.1/nios2eds/bin/gnu/H-i686-pc-linux-gnu/bin/../lib/gcc/nios2-elf/4.1.2/../../../../nios2-elf/lib/libc.a(lib_a-memmove.o)
 .debug_frame   0x00000784       0x20 /OPT/altera/12.1/nios2eds/bin/gnu/H-i686-pc-linux-gnu/bin/../lib/gcc/nios2-elf/4.1.2/../../../../nios2-elf/lib/libc.a(lib_a-memset.o)
 .debug_frame   0x000007a4      0x218 /OPT/altera/12.1/nios2eds/bin/gnu/H-i686-pc-linux-gnu/bin/../lib/gcc/nios2-elf/4.1.2/../../../../nios2-elf/lib/libc.a(lib_a-mprec.o)
 .debug_frame   0x000009bc       0x38 /OPT/altera/12.1/nios2eds/bin/gnu/H-i686-pc-linux-gnu/bin/../lib/gcc/nios2-elf/4.1.2/../../../../nios2-elf/lib/libc.a(lib_a-reallocr.o)
 .debug_frame   0x000009f4       0x20 /OPT/altera/12.1/nios2eds/bin/gnu/H-i686-pc-linux-gnu/bin/../lib/gcc/nios2-elf/4.1.2/../../../../nios2-elf/lib/libc.a(lib_a-s_isinfd.o)
 .debug_frame   0x00000a14       0x20 /OPT/altera/12.1/nios2eds/bin/gnu/H-i686-pc-linux-gnu/bin/../lib/gcc/nios2-elf/4.1.2/../../../../nios2-elf/lib/libc.a(lib_a-s_isnand.o)
 .debug_frame   0x00000a34       0x40 /OPT/altera/12.1/nios2eds/bin/gnu/H-i686-pc-linux-gnu/bin/../lib/gcc/nios2-elf/4.1.2/../../../../nios2-elf/lib/libc.a(lib_a-sprintf.o)
 .debug_frame   0x00000a74       0x78 /OPT/altera/12.1/nios2eds/bin/gnu/H-i686-pc-linux-gnu/bin/../lib/gcc/nios2-elf/4.1.2/../../../../nios2-elf/lib/libc.a(lib_a-stdio.o)
 .debug_frame   0x00000aec       0x20 /OPT/altera/12.1/nios2eds/bin/gnu/H-i686-pc-linux-gnu/bin/../lib/gcc/nios2-elf/4.1.2/../../../../nios2-elf/lib/libc.a(lib_a-strcmp.o)
 .debug_frame   0x00000b0c       0x2c /OPT/altera/12.1/nios2eds/bin/gnu/H-i686-pc-linux-gnu/bin/../lib/gcc/nios2-elf/4.1.2/../../../../nios2-elf/lib/libc.a(lib_a-writer.o)
 .debug_frame   0x00000b38       0x28 /OPT/altera/12.1/nios2eds/bin/gnu/H-i686-pc-linux-gnu/bin/../lib/gcc/nios2-elf/4.1.2/../../../../nios2-elf/lib/libc.a(lib_a-callocr.o)
 .debug_frame   0x00000b60       0x2c /OPT/altera/12.1/nios2eds/bin/gnu/H-i686-pc-linux-gnu/bin/../lib/gcc/nios2-elf/4.1.2/../../../../nios2-elf/lib/libc.a(lib_a-closer.o)
 .debug_frame   0x00000b8c       0x3c /OPT/altera/12.1/nios2eds/bin/gnu/H-i686-pc-linux-gnu/bin/../lib/gcc/nios2-elf/4.1.2/../../../../nios2-elf/lib/libc.a(lib_a-fclose.o)
 .debug_frame   0x00000bc8       0x2c /OPT/altera/12.1/nios2eds/bin/gnu/H-i686-pc-linux-gnu/bin/../lib/gcc/nios2-elf/4.1.2/../../../../nios2-elf/lib/libc.a(lib_a-fstatr.o)
 .debug_frame   0x00000bf4       0x2c /OPT/altera/12.1/nios2eds/bin/gnu/H-i686-pc-linux-gnu/bin/../lib/gcc/nios2-elf/4.1.2/../../../../nios2-elf/lib/libc.a(lib_a-isattyr.o)
 .debug_frame   0x00000c20       0x2c /OPT/altera/12.1/nios2eds/bin/gnu/H-i686-pc-linux-gnu/bin/../lib/gcc/nios2-elf/4.1.2/../../../../nios2-elf/lib/libc.a(lib_a-lseekr.o)
 .debug_frame   0x00000c4c       0x2c /OPT/altera/12.1/nios2eds/bin/gnu/H-i686-pc-linux-gnu/bin/../lib/gcc/nios2-elf/4.1.2/../../../../nios2-elf/lib/libc.a(lib_a-readr.o)
 .debug_frame   0x00000c78       0x38 /OPT/altera/12.1/nios2eds/bin/gnu/H-i686-pc-linux-gnu/bin/../lib/gcc/nios2-elf/4.1.2/libgcc.a(_udivdi3.o)
 .debug_frame   0x00000cb0       0x38 /OPT/altera/12.1/nios2eds/bin/gnu/H-i686-pc-linux-gnu/bin/../lib/gcc/nios2-elf/4.1.2/libgcc.a(_umoddi3.o)
 .debug_frame   0x00000ce8       0x70 /OPT/altera/12.1/nios2eds/bin/gnu/H-i686-pc-linux-gnu/bin/../lib/gcc/nios2-elf/4.1.2/libgcc.a(_addsub_df.o)
 .debug_frame   0x00000d58       0x3c /OPT/altera/12.1/nios2eds/bin/gnu/H-i686-pc-linux-gnu/bin/../lib/gcc/nios2-elf/4.1.2/libgcc.a(_mul_df.o)
 .debug_frame   0x00000d94       0x30 /OPT/altera/12.1/nios2eds/bin/gnu/H-i686-pc-linux-gnu/bin/../lib/gcc/nios2-elf/4.1.2/libgcc.a(_div_df.o)
 .debug_frame   0x00000dc4       0x2c /OPT/altera/12.1/nios2eds/bin/gnu/H-i686-pc-linux-gnu/bin/../lib/gcc/nios2-elf/4.1.2/libgcc.a(_eq_df.o)
 .debug_frame   0x00000df0       0x2c /OPT/altera/12.1/nios2eds/bin/gnu/H-i686-pc-linux-gnu/bin/../lib/gcc/nios2-elf/4.1.2/libgcc.a(_ne_df.o)
 .debug_frame   0x00000e1c       0x2c /OPT/altera/12.1/nios2eds/bin/gnu/H-i686-pc-linux-gnu/bin/../lib/gcc/nios2-elf/4.1.2/libgcc.a(_gt_df.o)
 .debug_frame   0x00000e48       0x2c /OPT/altera/12.1/nios2eds/bin/gnu/H-i686-pc-linux-gnu/bin/../lib/gcc/nios2-elf/4.1.2/libgcc.a(_ge_df.o)
 .debug_frame   0x00000e74       0x2c /OPT/altera/12.1/nios2eds/bin/gnu/H-i686-pc-linux-gnu/bin/../lib/gcc/nios2-elf/4.1.2/libgcc.a(_lt_df.o)
 .debug_frame   0x00000ea0       0x30 /OPT/altera/12.1/nios2eds/bin/gnu/H-i686-pc-linux-gnu/bin/../lib/gcc/nios2-elf/4.1.2/libgcc.a(_si_to_df.o)
 .debug_frame   0x00000ed0       0x28 /OPT/altera/12.1/nios2eds/bin/gnu/H-i686-pc-linux-gnu/bin/../lib/gcc/nios2-elf/4.1.2/libgcc.a(_df_to_si.o)
 .debug_frame   0x00000ef8       0x38 /OPT/altera/12.1/nios2eds/bin/gnu/H-i686-pc-linux-gnu/bin/../lib/gcc/nios2-elf/4.1.2/libgcc.a(_usi_to_df.o)
 .debug_frame   0x00000f30       0x70 /OPT/altera/12.1/nios2eds/bin/gnu/H-i686-pc-linux-gnu/bin/../lib/gcc/nios2-elf/4.1.2/libgcc.a(lib2-divmod.o)
 .debug_frame   0x00000fa0       0x2c /OPT/altera/12.1/nios2eds/bin/gnu/H-i686-pc-linux-gnu/bin/../lib/gcc/nios2-elf/4.1.2/libgcc.a(_muldi3.o)
 .debug_frame   0x00000fcc       0x20 /OPT/altera/12.1/nios2eds/bin/gnu/H-i686-pc-linux-gnu/bin/../lib/gcc/nios2-elf/4.1.2/libgcc.a(_clzsi2.o)
 .debug_frame   0x00000fec       0x2c /OPT/altera/12.1/nios2eds/bin/gnu/H-i686-pc-linux-gnu/bin/../lib/gcc/nios2-elf/4.1.2/libgcc.a(_pack_df.o)
 .debug_frame   0x00001018       0x20 /OPT/altera/12.1/nios2eds/bin/gnu/H-i686-pc-linux-gnu/bin/../lib/gcc/nios2-elf/4.1.2/libgcc.a(_unpack_df.o)
 .debug_frame   0x00001038       0x20 /OPT/altera/12.1/nios2eds/bin/gnu/H-i686-pc-linux-gnu/bin/../lib/gcc/nios2-elf/4.1.2/libgcc.a(_fpcmp_parts_df.o)
 .debug_frame   0x00001058       0x48 ../vga_bsp//libucosii_bsp.a(alt_close.o)
 .debug_frame   0x000010a0       0x2c ../vga_bsp//libucosii_bsp.a(alt_dev.o)
 .debug_frame   0x000010cc       0x48 ../vga_bsp//libucosii_bsp.a(alt_fstat.o)
 .debug_frame   0x00001114       0x34 ../vga_bsp//libucosii_bsp.a(alt_gettod.o)
 .debug_frame   0x00001148       0x48 ../vga_bsp//libucosii_bsp.a(alt_isatty.o)
 .debug_frame   0x00001190       0x48 ../vga_bsp//libucosii_bsp.a(alt_load.o)
 .debug_frame   0x000011d8       0x48 ../vga_bsp//libucosii_bsp.a(alt_lseek.o)
 .debug_frame   0x00001220       0x2c ../vga_bsp//libucosii_bsp.a(alt_main.o)
 .debug_frame   0x0000124c       0x48 ../vga_bsp//libucosii_bsp.a(alt_read.o)
 .debug_frame   0x00001294       0x2c ../vga_bsp//libucosii_bsp.a(alt_release_fd.o)
 .debug_frame   0x000012c0       0x2c ../vga_bsp//libucosii_bsp.a(alt_sbrk.o)
 .debug_frame   0x000012ec       0x48 ../vga_bsp//libucosii_bsp.a(alt_tick.o)
 .debug_frame   0x00001334       0x48 ../vga_bsp//libucosii_bsp.a(alt_write.o)
 .debug_frame   0x0000137c       0x4c ../vga_bsp//libucosii_bsp.a(alt_env_lock.o)
 .debug_frame   0x000013c8       0x4c ../vga_bsp//libucosii_bsp.a(alt_malloc_lock.o)
 .debug_frame   0x00001414      0x3e4 ../vga_bsp//libucosii_bsp.a(os_core.o)
 .debug_frame   0x000017f8       0x2c ../vga_bsp//libucosii_bsp.a(os_dbg.o)
 .debug_frame   0x00001824      0x180 ../vga_bsp//libucosii_bsp.a(os_flag.o)
 .debug_frame   0x000019a4       0xd4 ../vga_bsp//libucosii_bsp.a(os_mem.o)
 .debug_frame   0x00001a78      0x144 ../vga_bsp//libucosii_bsp.a(os_q.o)
 .debug_frame   0x00001bbc       0xf0 ../vga_bsp//libucosii_bsp.a(os_sem.o)
 .debug_frame   0x00001cac      0x160 ../vga_bsp//libucosii_bsp.a(os_task.o)
 .debug_frame   0x00001e0c       0xa0 ../vga_bsp//libucosii_bsp.a(os_time.o)
 .debug_frame   0x00001eac       0x64 ../vga_bsp//libucosii_bsp.a(alt_sys_init.o)
 .debug_frame   0x00001f10       0x80 ../vga_bsp//libucosii_bsp.a(altera_avalon_jtag_uart_fd.o)
 .debug_frame   0x00001f90       0x80 ../vga_bsp//libucosii_bsp.a(altera_avalon_jtag_uart_init.o)
 .debug_frame   0x00002010       0x2c ../vga_bsp//libucosii_bsp.a(altera_avalon_jtag_uart_ioctl.o)
 .debug_frame   0x0000203c       0x2c ../vga_bsp//libucosii_bsp.a(altera_avalon_jtag_uart_read.o)
 .debug_frame   0x00002068       0x2c ../vga_bsp//libucosii_bsp.a(altera_avalon_jtag_uart_write.o)
 .debug_frame   0x00002094       0x48 ../vga_bsp//libucosii_bsp.a(altera_avalon_timer_sc.o)
 .debug_frame   0x000020dc      0x17c ../vga_bsp//libucosii_bsp.a(altera_up_avalon_character_lcd.o)
 .debug_frame   0x00002258      0x160 ../vga_bsp//libucosii_bsp.a(altera_up_avalon_video_pixel_buffer_dma.o)
 .debug_frame   0x000023b8      0x3b4 ../vga_bsp//libucosii_bsp.a(altera_up_sd_card_avalon_interface.o)
 .debug_frame   0x0000276c       0x2c ../vga_bsp//libucosii_bsp.a(alt_alarm_start.o)
 .debug_frame   0x00002798       0x2c ../vga_bsp//libucosii_bsp.a(alt_dcache_flush_all.o)
 .debug_frame   0x000027c4       0x48 ../vga_bsp//libucosii_bsp.a(alt_dev_llist_insert.o)
 .debug_frame   0x0000280c       0x2c ../vga_bsp//libucosii_bsp.a(alt_do_ctors.o)
 .debug_frame   0x00002838       0x2c ../vga_bsp//libucosii_bsp.a(alt_do_dtors.o)
 .debug_frame   0x00002864       0x2c ../vga_bsp//libucosii_bsp.a(alt_find_dev.o)
 .debug_frame   0x00002890       0x2c ../vga_bsp//libucosii_bsp.a(alt_icache_flush_all.o)
 .debug_frame   0x000028bc       0x80 ../vga_bsp//libucosii_bsp.a(alt_iic.o)
 .debug_frame   0x0000293c       0x2c ../vga_bsp//libucosii_bsp.a(alt_iic_isr_register.o)
 .debug_frame   0x00002968       0x48 ../vga_bsp//libucosii_bsp.a(alt_io_redirect.o)
 .debug_frame   0x000029b0       0x2c ../vga_bsp//libucosii_bsp.a(alt_irq_handler.o)
 .debug_frame   0x000029dc       0x64 ../vga_bsp//libucosii_bsp.a(alt_open.o)
 .debug_frame   0x00002a40       0x2c ../vga_bsp//libucosii_bsp.a(altera_nios2_qsys_irq.o)
 .debug_frame   0x00002a6c      0x128 ../vga_bsp//libucosii_bsp.a(os_cpu_c.o)
 .debug_frame   0x00002b94       0x2c ../vga_bsp//libucosii_bsp.a(alt_find_file.o)
 .debug_frame   0x00002bc0       0x2c ../vga_bsp//libucosii_bsp.a(alt_get_fd.o)
 .debug_frame   0x00002bec       0x2c ../vga_bsp//libucosii_bsp.a(alt_icache_flush.o)
 .debug_frame   0x00002c18       0x20 /OPT/altera/12.1/nios2eds/bin/gnu/H-i686-pc-linux-gnu/bin/../lib/gcc/nios2-elf/4.1.2/../../../../nios2-elf/lib/libc.a(lib_a-atexit.o)
 .debug_frame   0x00002c38       0x28 /OPT/altera/12.1/nios2eds/bin/gnu/H-i686-pc-linux-gnu/bin/../lib/gcc/nios2-elf/4.1.2/../../../../nios2-elf/lib/libc.a(lib_a-exit.o)
 .debug_frame   0x00002c60       0x20 /OPT/altera/12.1/nios2eds/bin/gnu/H-i686-pc-linux-gnu/bin/../lib/gcc/nios2-elf/4.1.2/../../../../nios2-elf/lib/libc.a(lib_a-memcmp.o)
 .debug_frame   0x00002c80       0x34 /OPT/altera/12.1/nios2eds/bin/gnu/H-i686-pc-linux-gnu/bin/../lib/gcc/nios2-elf/4.1.2/../../../../nios2-elf/lib/libc.a(lib_a-__atexit.o)
 .debug_frame   0x00002cb4       0x4c /OPT/altera/12.1/nios2eds/bin/gnu/H-i686-pc-linux-gnu/bin/../lib/gcc/nios2-elf/4.1.2/../../../../nios2-elf/lib/libc.a(lib_a-__call_atexit.o)
 .debug_frame   0x00002d00       0x48 ../vga_bsp//libucosii_bsp.a(alt_exit.o)

.debug_str      0x00000000     0x2c3c
 *(.debug_str)
 .debug_str     0x00000000       0x63 obj/default/hello_ucosii.o
 .debug_str     0x00000063      0x130 /OPT/altera/12.1/nios2eds/bin/gnu/H-i686-pc-linux-gnu/bin/../lib/gcc/nios2-elf/4.1.2/../../../../nios2-elf/lib/libc.a(lib_a-ctime.o)
                                0x16f (size before relaxing)
 .debug_str     0x00000193      0x3a5 /OPT/altera/12.1/nios2eds/bin/gnu/H-i686-pc-linux-gnu/bin/../lib/gcc/nios2-elf/4.1.2/../../../../nios2-elf/lib/libc.a(lib_a-lcltime.o)
                                0x55c (size before relaxing)
 .debug_str     0x00000538       0x48 /OPT/altera/12.1/nios2eds/bin/gnu/H-i686-pc-linux-gnu/bin/../lib/gcc/nios2-elf/4.1.2/../../../../nios2-elf/lib/libc.a(lib_a-lcltime_r.o)
                                0x1bf (size before relaxing)
 .debug_str     0x00000580       0xd8 /OPT/altera/12.1/nios2eds/bin/gnu/H-i686-pc-linux-gnu/bin/../lib/gcc/nios2-elf/4.1.2/../../../../nios2-elf/lib/libc.a(lib_a-malloc.o)
                                0x521 (size before relaxing)
 .debug_str     0x00000658      0x208 /OPT/altera/12.1/nios2eds/bin/gnu/H-i686-pc-linux-gnu/bin/../lib/gcc/nios2-elf/4.1.2/../../../../nios2-elf/lib/libc.a(lib_a-mallocr.o)
                                0x6f6 (size before relaxing)
 .debug_str     0x00000860      0x11b /OPT/altera/12.1/nios2eds/bin/gnu/H-i686-pc-linux-gnu/bin/../lib/gcc/nios2-elf/4.1.2/../../../../nios2-elf/lib/libc.a(lib_a-mktm_r.o)
                                0x2aa (size before relaxing)
 .debug_str     0x0000097b       0xe3 /OPT/altera/12.1/nios2eds/bin/gnu/H-i686-pc-linux-gnu/bin/../lib/gcc/nios2-elf/4.1.2/../../../../nios2-elf/lib/libc.a(lib_a-printf.o)
                                0x528 (size before relaxing)
 .debug_str     0x00000a5e       0x81 /OPT/altera/12.1/nios2eds/bin/gnu/H-i686-pc-linux-gnu/bin/../lib/gcc/nios2-elf/4.1.2/../../../../nios2-elf/lib/libc.a(lib_a-puts.o)
                                0x54e (size before relaxing)
 .debug_str     0x00000adf       0xe0 /OPT/altera/12.1/nios2eds/bin/gnu/H-i686-pc-linux-gnu/bin/../lib/gcc/nios2-elf/4.1.2/../../../../nios2-elf/lib/libc.a(lib_a-sbrkr.o)
                                0x510 (size before relaxing)
 .debug_str     0x00000bbf       0xe0 /OPT/altera/12.1/nios2eds/bin/gnu/H-i686-pc-linux-gnu/bin/../lib/gcc/nios2-elf/4.1.2/../../../../nios2-elf/lib/libc.a(lib_a-strlen.o)
                                0x182 (size before relaxing)
 .debug_str     0x00000c9f       0x52 /OPT/altera/12.1/nios2eds/bin/gnu/H-i686-pc-linux-gnu/bin/../lib/gcc/nios2-elf/4.1.2/../../../../nios2-elf/lib/libc.a(lib_a-time.o)
                                0x52b (size before relaxing)
 .debug_str     0x00000cf1       0x60 /OPT/altera/12.1/nios2eds/bin/gnu/H-i686-pc-linux-gnu/bin/../lib/gcc/nios2-elf/4.1.2/../../../../nios2-elf/lib/libc.a(lib_a-tzlock.o)
                                0x184 (size before relaxing)
 .debug_str     0x00000d51       0x4b /OPT/altera/12.1/nios2eds/bin/gnu/H-i686-pc-linux-gnu/bin/../lib/gcc/nios2-elf/4.1.2/../../../../nios2-elf/lib/libc.a(lib_a-tzvars.o)
                                0x179 (size before relaxing)
 .debug_str     0x00000d9c      0x185 /OPT/altera/12.1/nios2eds/bin/gnu/H-i686-pc-linux-gnu/bin/../lib/gcc/nios2-elf/4.1.2/../../../../nios2-elf/lib/libc.a(lib_a-vfprintf.o)
                                0x6fd (size before relaxing)
 .debug_str     0x00000f21       0x46 /OPT/altera/12.1/nios2eds/bin/gnu/H-i686-pc-linux-gnu/bin/../lib/gcc/nios2-elf/4.1.2/../../../../nios2-elf/lib/libc.a(lib_a-wsetup.o)
                                0x511 (size before relaxing)
 .debug_str     0x00000f67       0x42 /OPT/altera/12.1/nios2eds/bin/gnu/H-i686-pc-linux-gnu/bin/../lib/gcc/nios2-elf/4.1.2/../../../../nios2-elf/lib/libc.a(lib_a-asctime.o)
                                0x553 (size before relaxing)
 .debug_str     0x00000fa9       0x58 /OPT/altera/12.1/nios2eds/bin/gnu/H-i686-pc-linux-gnu/bin/../lib/gcc/nios2-elf/4.1.2/../../../../nios2-elf/lib/libc.a(lib_a-asctime_r.o)
                                0x1cf (size before relaxing)
 .debug_str     0x00001001      0x102 /OPT/altera/12.1/nios2eds/bin/gnu/H-i686-pc-linux-gnu/bin/../lib/gcc/nios2-elf/4.1.2/../../../../nios2-elf/lib/libc.a(lib_a-dtoa.o)
                                0x606 (size before relaxing)
 .debug_str     0x00001103       0x65 /OPT/altera/12.1/nios2eds/bin/gnu/H-i686-pc-linux-gnu/bin/../lib/gcc/nios2-elf/4.1.2/../../../../nios2-elf/lib/libc.a(lib_a-fflush.o)
                                0x537 (size before relaxing)
 .debug_str     0x00001168      0x102 /OPT/altera/12.1/nios2eds/bin/gnu/H-i686-pc-linux-gnu/bin/../lib/gcc/nios2-elf/4.1.2/../../../../nios2-elf/lib/libc.a(lib_a-findfp.o)
                                0x5f9 (size before relaxing)
 .debug_str     0x0000126a       0x3c /OPT/altera/12.1/nios2eds/bin/gnu/H-i686-pc-linux-gnu/bin/../lib/gcc/nios2-elf/4.1.2/../../../../nios2-elf/lib/libc.a(lib_a-freer.o)
                                0x648 (size before relaxing)
 .debug_str     0x000012a6       0x66 /OPT/altera/12.1/nios2eds/bin/gnu/H-i686-pc-linux-gnu/bin/../lib/gcc/nios2-elf/4.1.2/../../../../nios2-elf/lib/libc.a(lib_a-fvwrite.o)
                                0x568 (size before relaxing)
 .debug_str     0x0000130c       0x5e /OPT/altera/12.1/nios2eds/bin/gnu/H-i686-pc-linux-gnu/bin/../lib/gcc/nios2-elf/4.1.2/../../../../nios2-elf/lib/libc.a(lib_a-fwalk.o)
                                0x53a (size before relaxing)
 .debug_str     0x0000136a       0x64 /OPT/altera/12.1/nios2eds/bin/gnu/H-i686-pc-linux-gnu/bin/../lib/gcc/nios2-elf/4.1.2/../../../../nios2-elf/lib/libc.a(lib_a-gettimeofdayr.o)
                                0x54e (size before relaxing)
 .debug_str     0x000013ce       0x48 /OPT/altera/12.1/nios2eds/bin/gnu/H-i686-pc-linux-gnu/bin/../lib/gcc/nios2-elf/4.1.2/../../../../nios2-elf/lib/libc.a(lib_a-gettzinfo.o)
                                0x1e0 (size before relaxing)
 .debug_str     0x00001416       0x46 /OPT/altera/12.1/nios2eds/bin/gnu/H-i686-pc-linux-gnu/bin/../lib/gcc/nios2-elf/4.1.2/../../../../nios2-elf/lib/libc.a(lib_a-impure.o)
                                0x51f (size before relaxing)
 .debug_str     0x0000145c       0x3d /OPT/altera/12.1/nios2eds/bin/gnu/H-i686-pc-linux-gnu/bin/../lib/gcc/nios2-elf/4.1.2/../../../../nios2-elf/lib/libc.a(lib_a-int_errno.o)
                                0x168 (size before relaxing)
 .debug_str     0x00001499      0x22a /OPT/altera/12.1/nios2eds/bin/gnu/H-i686-pc-linux-gnu/bin/../lib/gcc/nios2-elf/4.1.2/../../../../nios2-elf/lib/libc.a(lib_a-locale.o)
                                0x6ae (size before relaxing)
 .debug_str     0x000016c3      0x11c /OPT/altera/12.1/nios2eds/bin/gnu/H-i686-pc-linux-gnu/bin/../lib/gcc/nios2-elf/4.1.2/../../../../nios2-elf/lib/libc.a(lib_a-makebuf.o)
                                0x60b (size before relaxing)
 .debug_str     0x000017df       0x5c /OPT/altera/12.1/nios2eds/bin/gnu/H-i686-pc-linux-gnu/bin/../lib/gcc/nios2-elf/4.1.2/../../../../nios2-elf/lib/libc.a(lib_a-memchr.o)
                                0x190 (size before relaxing)
 .debug_str     0x0000183b       0x69 /OPT/altera/12.1/nios2eds/bin/gnu/H-i686-pc-linux-gnu/bin/../lib/gcc/nios2-elf/4.1.2/../../../../nios2-elf/lib/libc.a(lib_a-memcpy.o)
                                0x12d (size before relaxing)
 .debug_str     0x000018a4       0x4d /OPT/altera/12.1/nios2eds/bin/gnu/H-i686-pc-linux-gnu/bin/../lib/gcc/nios2-elf/4.1.2/../../../../nios2-elf/lib/libc.a(lib_a-memmove.o)
                                0x1a2 (size before relaxing)
 .debug_str     0x000018f1       0x42 /OPT/altera/12.1/nios2eds/bin/gnu/H-i686-pc-linux-gnu/bin/../lib/gcc/nios2-elf/4.1.2/../../../../nios2-elf/lib/libc.a(lib_a-memset.o)
                                0x183 (size before relaxing)
 .debug_str     0x00001933       0xf8 /OPT/altera/12.1/nios2eds/bin/gnu/H-i686-pc-linux-gnu/bin/../lib/gcc/nios2-elf/4.1.2/../../../../nios2-elf/lib/libc.a(lib_a-mprec.o)
                                0x613 (size before relaxing)
 .debug_str     0x00001a2b       0x59 /OPT/altera/12.1/nios2eds/bin/gnu/H-i686-pc-linux-gnu/bin/../lib/gcc/nios2-elf/4.1.2/../../../../nios2-elf/lib/libc.a(lib_a-reallocr.o)
                                0x5c8 (size before relaxing)
 .debug_str     0x00001a84       0xe1 /OPT/altera/12.1/nios2eds/bin/gnu/H-i686-pc-linux-gnu/bin/../lib/gcc/nios2-elf/4.1.2/../../../../nios2-elf/lib/libc.a(lib_a-s_isinfd.o)
                                0x18f (size before relaxing)
 .debug_str     0x00001b65       0x46 /OPT/altera/12.1/nios2eds/bin/gnu/H-i686-pc-linux-gnu/bin/../lib/gcc/nios2-elf/4.1.2/../../../../nios2-elf/lib/libc.a(lib_a-s_isnand.o)
                                0x18f (size before relaxing)
 .debug_str     0x00001bab       0x4e /OPT/altera/12.1/nios2eds/bin/gnu/H-i686-pc-linux-gnu/bin/../lib/gcc/nios2-elf/4.1.2/../../../../nios2-elf/lib/libc.a(lib_a-sprintf.o)
                                0x530 (size before relaxing)
 .debug_str     0x00001bf9       0x62 /OPT/altera/12.1/nios2eds/bin/gnu/H-i686-pc-linux-gnu/bin/../lib/gcc/nios2-elf/4.1.2/../../../../nios2-elf/lib/libc.a(lib_a-stdio.o)
                                0x536 (size before relaxing)
 .debug_str     0x00001c5b       0x42 /OPT/altera/12.1/nios2eds/bin/gnu/H-i686-pc-linux-gnu/bin/../lib/gcc/nios2-elf/4.1.2/../../../../nios2-elf/lib/libc.a(lib_a-strcmp.o)
                                0x168 (size before relaxing)
 .debug_str     0x00001c9d       0x4c /OPT/altera/12.1/nios2eds/bin/gnu/H-i686-pc-linux-gnu/bin/../lib/gcc/nios2-elf/4.1.2/../../../../nios2-elf/lib/libc.a(lib_a-writer.o)
                                0x513 (size before relaxing)
 .debug_str     0x00001ce9       0x19 /OPT/altera/12.1/nios2eds/bin/gnu/H-i686-pc-linux-gnu/bin/../lib/gcc/nios2-elf/4.1.2/../../../../nios2-elf/lib/libc.a(lib_a-callocr.o)
                                0x547 (size before relaxing)
 .debug_str     0x00001d02       0x43 /OPT/altera/12.1/nios2eds/bin/gnu/H-i686-pc-linux-gnu/bin/../lib/gcc/nios2-elf/4.1.2/../../../../nios2-elf/lib/libc.a(lib_a-closer.o)
                                0x503 (size before relaxing)
 .debug_str     0x00001d45       0x4b /OPT/altera/12.1/nios2eds/bin/gnu/H-i686-pc-linux-gnu/bin/../lib/gcc/nios2-elf/4.1.2/../../../../nios2-elf/lib/libc.a(lib_a-fclose.o)
                                0x51b (size before relaxing)
 .debug_str     0x00001d90       0x49 /OPT/altera/12.1/nios2eds/bin/gnu/H-i686-pc-linux-gnu/bin/../lib/gcc/nios2-elf/4.1.2/../../../../nios2-elf/lib/libc.a(lib_a-fstatr.o)
                                0x5f6 (size before relaxing)
 .debug_str     0x00001dd9       0x45 /OPT/altera/12.1/nios2eds/bin/gnu/H-i686-pc-linux-gnu/bin/../lib/gcc/nios2-elf/4.1.2/../../../../nios2-elf/lib/libc.a(lib_a-isattyr.o)
                                0x505 (size before relaxing)
 .debug_str     0x00001e1e       0x43 /OPT/altera/12.1/nios2eds/bin/gnu/H-i686-pc-linux-gnu/bin/../lib/gcc/nios2-elf/4.1.2/../../../../nios2-elf/lib/libc.a(lib_a-lseekr.o)
                                0x511 (size before relaxing)
 .debug_str     0x00001e61       0x41 /OPT/altera/12.1/nios2eds/bin/gnu/H-i686-pc-linux-gnu/bin/../lib/gcc/nios2-elf/4.1.2/../../../../nios2-elf/lib/libc.a(lib_a-readr.o)
                                0x511 (size before relaxing)
 .debug_str     0x00001ea2      0x14c /OPT/altera/12.1/nios2eds/bin/gnu/H-i686-pc-linux-gnu/bin/../lib/gcc/nios2-elf/4.1.2/libgcc.a(_udivdi3.o)
                                0x1fc (size before relaxing)
 .debug_str     0x00001fee        0xa /OPT/altera/12.1/nios2eds/bin/gnu/H-i686-pc-linux-gnu/bin/../lib/gcc/nios2-elf/4.1.2/libgcc.a(_umoddi3.o)
                                0x1fc (size before relaxing)
 .debug_str     0x00001ff8      0x137 /OPT/altera/12.1/nios2eds/bin/gnu/H-i686-pc-linux-gnu/bin/../lib/gcc/nios2-elf/4.1.2/libgcc.a(_addsub_df.o)
                                0x274 (size before relaxing)
 .debug_str     0x0000212f       0x40 /OPT/altera/12.1/nios2eds/bin/gnu/H-i686-pc-linux-gnu/bin/../lib/gcc/nios2-elf/4.1.2/libgcc.a(_mul_df.o)
                                0x246 (size before relaxing)
 .debug_str     0x0000216f       0x35 /OPT/altera/12.1/nios2eds/bin/gnu/H-i686-pc-linux-gnu/bin/../lib/gcc/nios2-elf/4.1.2/libgcc.a(_div_df.o)
                                0x236 (size before relaxing)
 .debug_str     0x000021a4        0x8 /OPT/altera/12.1/nios2eds/bin/gnu/H-i686-pc-linux-gnu/bin/../lib/gcc/nios2-elf/4.1.2/libgcc.a(_eq_df.o)
                                0x203 (size before relaxing)
 .debug_str     0x000021ac        0x8 /OPT/altera/12.1/nios2eds/bin/gnu/H-i686-pc-linux-gnu/bin/../lib/gcc/nios2-elf/4.1.2/libgcc.a(_ne_df.o)
                                0x203 (size before relaxing)
 .debug_str     0x000021b4        0x8 /OPT/altera/12.1/nios2eds/bin/gnu/H-i686-pc-linux-gnu/bin/../lib/gcc/nios2-elf/4.1.2/libgcc.a(_gt_df.o)
                                0x203 (size before relaxing)
 .debug_str     0x000021bc        0x8 /OPT/altera/12.1/nios2eds/bin/gnu/H-i686-pc-linux-gnu/bin/../lib/gcc/nios2-elf/4.1.2/libgcc.a(_ge_df.o)
                                0x203 (size before relaxing)
 .debug_str     0x000021c4        0x8 /OPT/altera/12.1/nios2eds/bin/gnu/H-i686-pc-linux-gnu/bin/../lib/gcc/nios2-elf/4.1.2/libgcc.a(_lt_df.o)
                                0x203 (size before relaxing)
 .debug_str     0x000021cc       0x18 /OPT/altera/12.1/nios2eds/bin/gnu/H-i686-pc-linux-gnu/bin/../lib/gcc/nios2-elf/4.1.2/libgcc.a(_si_to_df.o)
                                0x1e3 (size before relaxing)
 .debug_str     0x000021e4        0xa /OPT/altera/12.1/nios2eds/bin/gnu/H-i686-pc-linux-gnu/bin/../lib/gcc/nios2-elf/4.1.2/libgcc.a(_df_to_si.o)
                                0x20c (size before relaxing)
 .debug_str     0x00000000      0x1a8 /OPT/altera/12.1/nios2eds/bin/gnu/H-i686-pc-linux-gnu/bin/../lib/gcc/nios2-elf/4.1.2/libgcc.a(_thenan_df.o)
 .debug_str     0x000021ee       0x14 /OPT/altera/12.1/nios2eds/bin/gnu/H-i686-pc-linux-gnu/bin/../lib/gcc/nios2-elf/4.1.2/libgcc.a(_usi_to_df.o)
                                0x1df (size before relaxing)
 .debug_str     0x00002202       0x76 /OPT/altera/12.1/nios2eds/bin/gnu/H-i686-pc-linux-gnu/bin/../lib/gcc/nios2-elf/4.1.2/libgcc.a(lib2-divmod.o)
                                0x1b9 (size before relaxing)
 .debug_str     0x00002278        0x9 /OPT/altera/12.1/nios2eds/bin/gnu/H-i686-pc-linux-gnu/bin/../lib/gcc/nios2-elf/4.1.2/libgcc.a(_muldi3.o)
                                0x1b1 (size before relaxing)
 .debug_str     0x00000000      0x166 /OPT/altera/12.1/nios2eds/bin/gnu/H-i686-pc-linux-gnu/bin/../lib/gcc/nios2-elf/4.1.2/libgcc.a(_clz.o)
 .debug_str     0x00002281        0x9 /OPT/altera/12.1/nios2eds/bin/gnu/H-i686-pc-linux-gnu/bin/../lib/gcc/nios2-elf/4.1.2/libgcc.a(_clzsi2.o)
                                0x183 (size before relaxing)
 .debug_str     0x0000228a       0x10 /OPT/altera/12.1/nios2eds/bin/gnu/H-i686-pc-linux-gnu/bin/../lib/gcc/nios2-elf/4.1.2/libgcc.a(_pack_df.o)
                                0x20b (size before relaxing)
 .debug_str     0x0000229a        0xb /OPT/altera/12.1/nios2eds/bin/gnu/H-i686-pc-linux-gnu/bin/../lib/gcc/nios2-elf/4.1.2/libgcc.a(_unpack_df.o)
                                0x1ed (size before relaxing)
 .debug_str     0x000022a5       0x10 /OPT/altera/12.1/nios2eds/bin/gnu/H-i686-pc-linux-gnu/bin/../lib/gcc/nios2-elf/4.1.2/libgcc.a(_fpcmp_parts_df.o)
                                0x1cb (size before relaxing)
 .debug_str     0x000022b5       0x12 ../vga_bsp//libucosii_bsp.a(alt_close.o)
 .debug_str     0x000022c7       0x12 ../vga_bsp//libucosii_bsp.a(alt_dev.o)
 .debug_str     0x000022d9       0x12 ../vga_bsp//libucosii_bsp.a(alt_errno.o)
 .debug_str     0x000022eb       0x12 ../vga_bsp//libucosii_bsp.a(alt_fstat.o)
 .debug_str     0x000022fd       0x12 ../vga_bsp//libucosii_bsp.a(alt_gettod.o)
 .debug_str     0x0000230f       0x12 ../vga_bsp//libucosii_bsp.a(alt_isatty.o)
 .debug_str     0x00002321       0x12 ../vga_bsp//libucosii_bsp.a(alt_load.o)
 .debug_str     0x00002333       0x12 ../vga_bsp//libucosii_bsp.a(alt_lseek.o)
 .debug_str     0x00002345       0x12 ../vga_bsp//libucosii_bsp.a(alt_main.o)
 .debug_str     0x00002357       0x12 ../vga_bsp//libucosii_bsp.a(alt_read.o)
 .debug_str     0x00002369       0x12 ../vga_bsp//libucosii_bsp.a(alt_release_fd.o)
 .debug_str     0x0000237b       0x1a ../vga_bsp//libucosii_bsp.a(alt_sbrk.o)
 .debug_str     0x00002395       0x1a ../vga_bsp//libucosii_bsp.a(alt_tick.o)
 .debug_str     0x000023af       0x12 ../vga_bsp//libucosii_bsp.a(alt_write.o)
 .debug_str     0x000023c1       0x36 ../vga_bsp//libucosii_bsp.a(alt_env_lock.o)
 .debug_str     0x000023f7       0x36 ../vga_bsp//libucosii_bsp.a(alt_malloc_lock.o)
 .debug_str     0x0000242d       0x46 ../vga_bsp//libucosii_bsp.a(os_core.o)
 .debug_str     0x00002473       0x2b ../vga_bsp//libucosii_bsp.a(os_dbg.o)
 .debug_str     0x0000249e       0x4e ../vga_bsp//libucosii_bsp.a(os_flag.o)
 .debug_str     0x000024ec       0x2c ../vga_bsp//libucosii_bsp.a(os_mem.o)
 .debug_str     0x00002518       0x36 ../vga_bsp//libucosii_bsp.a(os_q.o)
 .debug_str     0x0000254e       0x36 ../vga_bsp//libucosii_bsp.a(os_sem.o)
 .debug_str     0x00002584       0x23 ../vga_bsp//libucosii_bsp.a(os_task.o)
 .debug_str     0x000025a7       0x1f ../vga_bsp//libucosii_bsp.a(os_time.o)
 .debug_str     0x000025c6       0x5a ../vga_bsp//libucosii_bsp.a(alt_sys_init.o)
 .debug_str     0x00002620       0x12 ../vga_bsp//libucosii_bsp.a(altera_avalon_jtag_uart_fd.o)
 .debug_str     0x00002632       0x1a ../vga_bsp//libucosii_bsp.a(altera_avalon_jtag_uart_init.o)
 .debug_str     0x0000264c       0x12 ../vga_bsp//libucosii_bsp.a(altera_avalon_jtag_uart_ioctl.o)
 .debug_str     0x0000265e       0x22 ../vga_bsp//libucosii_bsp.a(altera_avalon_jtag_uart_read.o)
 .debug_str     0x00002680       0x22 ../vga_bsp//libucosii_bsp.a(altera_avalon_jtag_uart_write.o)
 .debug_str     0x000026a2       0x12 ../vga_bsp//libucosii_bsp.a(altera_avalon_timer_sc.o)
 .debug_str     0x000026b4       0x55 ../vga_bsp//libucosii_bsp.a(altera_up_avalon_character_lcd.o)
 .debug_str     0x00002709       0x93 ../vga_bsp//libucosii_bsp.a(altera_up_avalon_video_pixel_buffer_dma.o)
 .debug_str     0x0000279c      0x1c2 ../vga_bsp//libucosii_bsp.a(altera_up_sd_card_avalon_interface.o)
 .debug_str     0x0000295e       0x23 ../vga_bsp//libucosii_bsp.a(alt_alarm_start.o)
 .debug_str     0x00002981       0x12 ../vga_bsp//libucosii_bsp.a(alt_dcache_flush_all.o)
 .debug_str     0x00002993       0x12 ../vga_bsp//libucosii_bsp.a(alt_dev_llist_insert.o)
 .debug_str     0x000029a5       0x12 ../vga_bsp//libucosii_bsp.a(alt_find_dev.o)
 .debug_str     0x000029b7       0x12 ../vga_bsp//libucosii_bsp.a(alt_icache_flush_all.o)
 .debug_str     0x000029c9       0x18 ../vga_bsp//libucosii_bsp.a(alt_iic.o)
 .debug_str     0x000029e1       0x1a ../vga_bsp//libucosii_bsp.a(alt_iic_isr_register.o)
 .debug_str     0x000029fb       0x12 ../vga_bsp//libucosii_bsp.a(alt_io_redirect.o)
 .debug_str     0x00002a0d       0x12 ../vga_bsp//libucosii_bsp.a(alt_irq_handler.o)
 .debug_str     0x00002a1f       0x12 ../vga_bsp//libucosii_bsp.a(alt_open.o)
 .debug_str     0x00002a31       0x12 ../vga_bsp//libucosii_bsp.a(altera_nios2_qsys_irq.o)
 .debug_str     0x00002a43       0x20 ../vga_bsp//libucosii_bsp.a(os_cpu_c.o)
 .debug_str     0x00002a63       0x12 ../vga_bsp//libucosii_bsp.a(alt_find_file.o)
 .debug_str     0x00002a75       0x12 ../vga_bsp//libucosii_bsp.a(alt_get_fd.o)
 .debug_str     0x00002a87       0x12 ../vga_bsp//libucosii_bsp.a(alt_icache_flush.o)
 .debug_str     0x00002a99       0x3b /OPT/altera/12.1/nios2eds/bin/gnu/H-i686-pc-linux-gnu/bin/../lib/gcc/nios2-elf/4.1.2/../../../../nios2-elf/lib/libc.a(lib_a-atexit.o)
                                0x1c4 (size before relaxing)
 .debug_str     0x00002ad4       0x3e /OPT/altera/12.1/nios2eds/bin/gnu/H-i686-pc-linux-gnu/bin/../lib/gcc/nios2-elf/4.1.2/../../../../nios2-elf/lib/libc.a(lib_a-exit.o)
                                0x511 (size before relaxing)
 .debug_str     0x00002b12       0x42 /OPT/altera/12.1/nios2eds/bin/gnu/H-i686-pc-linux-gnu/bin/../lib/gcc/nios2-elf/4.1.2/../../../../nios2-elf/lib/libc.a(lib_a-memcmp.o)
                                0x16f (size before relaxing)
 .debug_str     0x00002b54       0x51 /OPT/altera/12.1/nios2eds/bin/gnu/H-i686-pc-linux-gnu/bin/../lib/gcc/nios2-elf/4.1.2/../../../../nios2-elf/lib/libc.a(lib_a-__atexit.o)
                                0x529 (size before relaxing)
 .debug_str     0x00002ba5       0x7b /OPT/altera/12.1/nios2eds/bin/gnu/H-i686-pc-linux-gnu/bin/../lib/gcc/nios2-elf/4.1.2/../../../../nios2-elf/lib/libc.a(lib_a-__call_atexit.o)
                                0x553 (size before relaxing)
 .debug_str     0x00002c20       0x1c ../vga_bsp//libucosii_bsp.a(alt_exit.o)

.debug_loc      0x00000000     0xdf3d
 *(.debug_loc)
 .debug_loc     0x00000000       0x81 obj/default/hello_ucosii.o
 .debug_loc     0x00000081       0x32 /OPT/altera/12.1/nios2eds/bin/gnu/H-i686-pc-linux-gnu/bin/../lib/gcc/nios2-elf/4.1.2/../../../../nios2-elf/lib/libc.a(lib_a-ctime.o)
 .debug_loc     0x000000b3       0x13 /OPT/altera/12.1/nios2eds/bin/gnu/H-i686-pc-linux-gnu/bin/../lib/gcc/nios2-elf/4.1.2/../../../../nios2-elf/lib/libc.a(lib_a-lcltime.o)
 .debug_loc     0x000000c6       0x26 /OPT/altera/12.1/nios2eds/bin/gnu/H-i686-pc-linux-gnu/bin/../lib/gcc/nios2-elf/4.1.2/../../../../nios2-elf/lib/libc.a(lib_a-lcltime_r.o)
 .debug_loc     0x000000ec       0x3c /OPT/altera/12.1/nios2eds/bin/gnu/H-i686-pc-linux-gnu/bin/../lib/gcc/nios2-elf/4.1.2/../../../../nios2-elf/lib/libc.a(lib_a-malloc.o)
 .debug_loc     0x00000128      0xaeb /OPT/altera/12.1/nios2eds/bin/gnu/H-i686-pc-linux-gnu/bin/../lib/gcc/nios2-elf/4.1.2/../../../../nios2-elf/lib/libc.a(lib_a-mallocr.o)
 .debug_loc     0x00000c13      0x39e /OPT/altera/12.1/nios2eds/bin/gnu/H-i686-pc-linux-gnu/bin/../lib/gcc/nios2-elf/4.1.2/../../../../nios2-elf/lib/libc.a(lib_a-mktm_r.o)
 .debug_loc     0x00000fb1       0xcb /OPT/altera/12.1/nios2eds/bin/gnu/H-i686-pc-linux-gnu/bin/../lib/gcc/nios2-elf/4.1.2/../../../../nios2-elf/lib/libc.a(lib_a-printf.o)
 .debug_loc     0x0000107c       0xa2 /OPT/altera/12.1/nios2eds/bin/gnu/H-i686-pc-linux-gnu/bin/../lib/gcc/nios2-elf/4.1.2/../../../../nios2-elf/lib/libc.a(lib_a-puts.o)
 .debug_loc     0x0000111e       0x5b /OPT/altera/12.1/nios2eds/bin/gnu/H-i686-pc-linux-gnu/bin/../lib/gcc/nios2-elf/4.1.2/../../../../nios2-elf/lib/libc.a(lib_a-sbrkr.o)
 .debug_loc     0x00001179       0x3c /OPT/altera/12.1/nios2eds/bin/gnu/H-i686-pc-linux-gnu/bin/../lib/gcc/nios2-elf/4.1.2/../../../../nios2-elf/lib/libc.a(lib_a-strlen.o)
 .debug_loc     0x000011b5       0x48 /OPT/altera/12.1/nios2eds/bin/gnu/H-i686-pc-linux-gnu/bin/../lib/gcc/nios2-elf/4.1.2/../../../../nios2-elf/lib/libc.a(lib_a-time.o)
 .debug_loc     0x000011fd     0x1e0d /OPT/altera/12.1/nios2eds/bin/gnu/H-i686-pc-linux-gnu/bin/../lib/gcc/nios2-elf/4.1.2/../../../../nios2-elf/lib/libc.a(lib_a-vfprintf.o)
 .debug_loc     0x0000300a       0x7c /OPT/altera/12.1/nios2eds/bin/gnu/H-i686-pc-linux-gnu/bin/../lib/gcc/nios2-elf/4.1.2/../../../../nios2-elf/lib/libc.a(lib_a-wsetup.o)
 .debug_loc     0x00003086       0x13 /OPT/altera/12.1/nios2eds/bin/gnu/H-i686-pc-linux-gnu/bin/../lib/gcc/nios2-elf/4.1.2/../../../../nios2-elf/lib/libc.a(lib_a-asctime.o)
 .debug_loc     0x00003099       0x5b /OPT/altera/12.1/nios2eds/bin/gnu/H-i686-pc-linux-gnu/bin/../lib/gcc/nios2-elf/4.1.2/../../../../nios2-elf/lib/libc.a(lib_a-asctime_r.o)
 .debug_loc     0x000030f4     0x1dfa /OPT/altera/12.1/nios2eds/bin/gnu/H-i686-pc-linux-gnu/bin/../lib/gcc/nios2-elf/4.1.2/../../../../nios2-elf/lib/libc.a(lib_a-dtoa.o)
 .debug_loc     0x00004eee      0x1f6 /OPT/altera/12.1/nios2eds/bin/gnu/H-i686-pc-linux-gnu/bin/../lib/gcc/nios2-elf/4.1.2/../../../../nios2-elf/lib/libc.a(lib_a-fflush.o)
 .debug_loc     0x000050e4      0x19f /OPT/altera/12.1/nios2eds/bin/gnu/H-i686-pc-linux-gnu/bin/../lib/gcc/nios2-elf/4.1.2/../../../../nios2-elf/lib/libc.a(lib_a-findfp.o)
 .debug_loc     0x00005283      0x4a7 /OPT/altera/12.1/nios2eds/bin/gnu/H-i686-pc-linux-gnu/bin/../lib/gcc/nios2-elf/4.1.2/../../../../nios2-elf/lib/libc.a(lib_a-freer.o)
 .debug_loc     0x0000572a      0x4e4 /OPT/altera/12.1/nios2eds/bin/gnu/H-i686-pc-linux-gnu/bin/../lib/gcc/nios2-elf/4.1.2/../../../../nios2-elf/lib/libc.a(lib_a-fvwrite.o)
 .debug_loc     0x00005c0e      0x1d2 /OPT/altera/12.1/nios2eds/bin/gnu/H-i686-pc-linux-gnu/bin/../lib/gcc/nios2-elf/4.1.2/../../../../nios2-elf/lib/libc.a(lib_a-fwalk.o)
 .debug_loc     0x00005de0       0x79 /OPT/altera/12.1/nios2eds/bin/gnu/H-i686-pc-linux-gnu/bin/../lib/gcc/nios2-elf/4.1.2/../../../../nios2-elf/lib/libc.a(lib_a-gettimeofdayr.o)
 .debug_loc     0x00005e59       0xe1 /OPT/altera/12.1/nios2eds/bin/gnu/H-i686-pc-linux-gnu/bin/../lib/gcc/nios2-elf/4.1.2/../../../../nios2-elf/lib/libc.a(lib_a-locale.o)
 .debug_loc     0x00005f3a      0x11c /OPT/altera/12.1/nios2eds/bin/gnu/H-i686-pc-linux-gnu/bin/../lib/gcc/nios2-elf/4.1.2/../../../../nios2-elf/lib/libc.a(lib_a-makebuf.o)
 .debug_loc     0x00006056      0x106 /OPT/altera/12.1/nios2eds/bin/gnu/H-i686-pc-linux-gnu/bin/../lib/gcc/nios2-elf/4.1.2/../../../../nios2-elf/lib/libc.a(lib_a-memchr.o)
 .debug_loc     0x0000615c       0xca /OPT/altera/12.1/nios2eds/bin/gnu/H-i686-pc-linux-gnu/bin/../lib/gcc/nios2-elf/4.1.2/../../../../nios2-elf/lib/libc.a(lib_a-memcpy.o)
 .debug_loc     0x00006226      0x117 /OPT/altera/12.1/nios2eds/bin/gnu/H-i686-pc-linux-gnu/bin/../lib/gcc/nios2-elf/4.1.2/../../../../nios2-elf/lib/libc.a(lib_a-memmove.o)
 .debug_loc     0x0000633d       0xa1 /OPT/altera/12.1/nios2eds/bin/gnu/H-i686-pc-linux-gnu/bin/../lib/gcc/nios2-elf/4.1.2/../../../../nios2-elf/lib/libc.a(lib_a-memset.o)
 .debug_loc     0x000063de     0x14d6 /OPT/altera/12.1/nios2eds/bin/gnu/H-i686-pc-linux-gnu/bin/../lib/gcc/nios2-elf/4.1.2/../../../../nios2-elf/lib/libc.a(lib_a-mprec.o)
 .debug_loc     0x000078b4      0x8c0 /OPT/altera/12.1/nios2eds/bin/gnu/H-i686-pc-linux-gnu/bin/../lib/gcc/nios2-elf/4.1.2/../../../../nios2-elf/lib/libc.a(lib_a-reallocr.o)
 .debug_loc     0x00008174       0x36 /OPT/altera/12.1/nios2eds/bin/gnu/H-i686-pc-linux-gnu/bin/../lib/gcc/nios2-elf/4.1.2/../../../../nios2-elf/lib/libc.a(lib_a-s_isinfd.o)
 .debug_loc     0x000081aa       0x18 /OPT/altera/12.1/nios2eds/bin/gnu/H-i686-pc-linux-gnu/bin/../lib/gcc/nios2-elf/4.1.2/../../../../nios2-elf/lib/libc.a(lib_a-s_isnand.o)
 .debug_loc     0x000081c2       0xc0 /OPT/altera/12.1/nios2eds/bin/gnu/H-i686-pc-linux-gnu/bin/../lib/gcc/nios2-elf/4.1.2/../../../../nios2-elf/lib/libc.a(lib_a-sprintf.o)
 .debug_loc     0x00008282      0x21f /OPT/altera/12.1/nios2eds/bin/gnu/H-i686-pc-linux-gnu/bin/../lib/gcc/nios2-elf/4.1.2/../../../../nios2-elf/lib/libc.a(lib_a-stdio.o)
 .debug_loc     0x000084a1       0x65 /OPT/altera/12.1/nios2eds/bin/gnu/H-i686-pc-linux-gnu/bin/../lib/gcc/nios2-elf/4.1.2/../../../../nios2-elf/lib/libc.a(lib_a-strcmp.o)
 .debug_loc     0x00008506       0x97 /OPT/altera/12.1/nios2eds/bin/gnu/H-i686-pc-linux-gnu/bin/../lib/gcc/nios2-elf/4.1.2/../../../../nios2-elf/lib/libc.a(lib_a-writer.o)
 .debug_loc     0x0000859d       0xe9 /OPT/altera/12.1/nios2eds/bin/gnu/H-i686-pc-linux-gnu/bin/../lib/gcc/nios2-elf/4.1.2/../../../../nios2-elf/lib/libc.a(lib_a-callocr.o)
 .debug_loc     0x00008686       0x5b /OPT/altera/12.1/nios2eds/bin/gnu/H-i686-pc-linux-gnu/bin/../lib/gcc/nios2-elf/4.1.2/../../../../nios2-elf/lib/libc.a(lib_a-closer.o)
 .debug_loc     0x000086e1       0xe4 /OPT/altera/12.1/nios2eds/bin/gnu/H-i686-pc-linux-gnu/bin/../lib/gcc/nios2-elf/4.1.2/../../../../nios2-elf/lib/libc.a(lib_a-fclose.o)
 .debug_loc     0x000087c5       0x79 /OPT/altera/12.1/nios2eds/bin/gnu/H-i686-pc-linux-gnu/bin/../lib/gcc/nios2-elf/4.1.2/../../../../nios2-elf/lib/libc.a(lib_a-fstatr.o)
 .debug_loc     0x0000883e       0x5b /OPT/altera/12.1/nios2eds/bin/gnu/H-i686-pc-linux-gnu/bin/../lib/gcc/nios2-elf/4.1.2/../../../../nios2-elf/lib/libc.a(lib_a-isattyr.o)
 .debug_loc     0x00008899       0x97 /OPT/altera/12.1/nios2eds/bin/gnu/H-i686-pc-linux-gnu/bin/../lib/gcc/nios2-elf/4.1.2/../../../../nios2-elf/lib/libc.a(lib_a-lseekr.o)
 .debug_loc     0x00008930       0x97 /OPT/altera/12.1/nios2eds/bin/gnu/H-i686-pc-linux-gnu/bin/../lib/gcc/nios2-elf/4.1.2/../../../../nios2-elf/lib/libc.a(lib_a-readr.o)
 .debug_loc     0x000089c7      0xc12 /OPT/altera/12.1/nios2eds/bin/gnu/H-i686-pc-linux-gnu/bin/../lib/gcc/nios2-elf/4.1.2/libgcc.a(_udivdi3.o)
 .debug_loc     0x000095d9      0xc26 /OPT/altera/12.1/nios2eds/bin/gnu/H-i686-pc-linux-gnu/bin/../lib/gcc/nios2-elf/4.1.2/libgcc.a(_umoddi3.o)
 .debug_loc     0x0000a1ff      0x47a /OPT/altera/12.1/nios2eds/bin/gnu/H-i686-pc-linux-gnu/bin/../lib/gcc/nios2-elf/4.1.2/libgcc.a(_addsub_df.o)
 .debug_loc     0x0000a679      0x3b4 /OPT/altera/12.1/nios2eds/bin/gnu/H-i686-pc-linux-gnu/bin/../lib/gcc/nios2-elf/4.1.2/libgcc.a(_mul_df.o)
 .debug_loc     0x0000aa2d      0x1df /OPT/altera/12.1/nios2eds/bin/gnu/H-i686-pc-linux-gnu/bin/../lib/gcc/nios2-elf/4.1.2/libgcc.a(_div_df.o)
 .debug_loc     0x0000ac0c       0x70 /OPT/altera/12.1/nios2eds/bin/gnu/H-i686-pc-linux-gnu/bin/../lib/gcc/nios2-elf/4.1.2/libgcc.a(_eq_df.o)
 .debug_loc     0x0000ac7c       0x70 /OPT/altera/12.1/nios2eds/bin/gnu/H-i686-pc-linux-gnu/bin/../lib/gcc/nios2-elf/4.1.2/libgcc.a(_ne_df.o)
 .debug_loc     0x0000acec       0x70 /OPT/altera/12.1/nios2eds/bin/gnu/H-i686-pc-linux-gnu/bin/../lib/gcc/nios2-elf/4.1.2/libgcc.a(_gt_df.o)
 .debug_loc     0x0000ad5c       0x70 /OPT/altera/12.1/nios2eds/bin/gnu/H-i686-pc-linux-gnu/bin/../lib/gcc/nios2-elf/4.1.2/libgcc.a(_ge_df.o)
 .debug_loc     0x0000adcc       0x70 /OPT/altera/12.1/nios2eds/bin/gnu/H-i686-pc-linux-gnu/bin/../lib/gcc/nios2-elf/4.1.2/libgcc.a(_lt_df.o)
 .debug_loc     0x0000ae3c       0x9a /OPT/altera/12.1/nios2eds/bin/gnu/H-i686-pc-linux-gnu/bin/../lib/gcc/nios2-elf/4.1.2/libgcc.a(_si_to_df.o)
 .debug_loc     0x0000aed6       0x8b /OPT/altera/12.1/nios2eds/bin/gnu/H-i686-pc-linux-gnu/bin/../lib/gcc/nios2-elf/4.1.2/libgcc.a(_df_to_si.o)
 .debug_loc     0x0000af61       0x5b /OPT/altera/12.1/nios2eds/bin/gnu/H-i686-pc-linux-gnu/bin/../lib/gcc/nios2-elf/4.1.2/libgcc.a(_usi_to_df.o)
 .debug_loc     0x0000afbc      0x1d2 /OPT/altera/12.1/nios2eds/bin/gnu/H-i686-pc-linux-gnu/bin/../lib/gcc/nios2-elf/4.1.2/libgcc.a(lib2-divmod.o)
 .debug_loc     0x0000b18e       0xc4 /OPT/altera/12.1/nios2eds/bin/gnu/H-i686-pc-linux-gnu/bin/../lib/gcc/nios2-elf/4.1.2/libgcc.a(_muldi3.o)
 .debug_loc     0x0000b252       0x1e /OPT/altera/12.1/nios2eds/bin/gnu/H-i686-pc-linux-gnu/bin/../lib/gcc/nios2-elf/4.1.2/libgcc.a(_clzsi2.o)
 .debug_loc     0x0000b270      0x184 /OPT/altera/12.1/nios2eds/bin/gnu/H-i686-pc-linux-gnu/bin/../lib/gcc/nios2-elf/4.1.2/libgcc.a(_pack_df.o)
 .debug_loc     0x0000b3f4       0xe5 /OPT/altera/12.1/nios2eds/bin/gnu/H-i686-pc-linux-gnu/bin/../lib/gcc/nios2-elf/4.1.2/libgcc.a(_unpack_df.o)
 .debug_loc     0x0000b4d9       0x56 ../vga_bsp//libucosii_bsp.a(alt_close.o)
 .debug_loc     0x0000b52f       0x2b ../vga_bsp//libucosii_bsp.a(alt_dev.o)
 .debug_loc     0x0000b55a       0x56 ../vga_bsp//libucosii_bsp.a(alt_fstat.o)
 .debug_loc     0x0000b5b0       0x2b ../vga_bsp//libucosii_bsp.a(alt_gettod.o)
 .debug_loc     0x0000b5db       0x57 ../vga_bsp//libucosii_bsp.a(alt_isatty.o)
 .debug_loc     0x0000b632       0x56 ../vga_bsp//libucosii_bsp.a(alt_load.o)
 .debug_loc     0x0000b688       0x56 ../vga_bsp//libucosii_bsp.a(alt_lseek.o)
 .debug_loc     0x0000b6de       0x2b ../vga_bsp//libucosii_bsp.a(alt_main.o)
 .debug_loc     0x0000b709       0x56 ../vga_bsp//libucosii_bsp.a(alt_read.o)
 .debug_loc     0x0000b75f       0x2b ../vga_bsp//libucosii_bsp.a(alt_release_fd.o)
 .debug_loc     0x0000b78a       0x2b ../vga_bsp//libucosii_bsp.a(alt_sbrk.o)
 .debug_loc     0x0000b7b5       0x56 ../vga_bsp//libucosii_bsp.a(alt_tick.o)
 .debug_loc     0x0000b80b       0x56 ../vga_bsp//libucosii_bsp.a(alt_write.o)
 .debug_loc     0x0000b861       0x57 ../vga_bsp//libucosii_bsp.a(alt_env_lock.o)
 .debug_loc     0x0000b8b8       0x57 ../vga_bsp//libucosii_bsp.a(alt_malloc_lock.o)
 .debug_loc     0x0000b90f      0x5e2 ../vga_bsp//libucosii_bsp.a(os_core.o)
 .debug_loc     0x0000bef1       0x2b ../vga_bsp//libucosii_bsp.a(os_dbg.o)
 .debug_loc     0x0000bf1c      0x232 ../vga_bsp//libucosii_bsp.a(os_flag.o)
 .debug_loc     0x0000c14e      0x12d ../vga_bsp//libucosii_bsp.a(os_mem.o)
 .debug_loc     0x0000c27b      0x1da ../vga_bsp//libucosii_bsp.a(os_q.o)
 .debug_loc     0x0000c455      0x158 ../vga_bsp//libucosii_bsp.a(os_sem.o)
 .debug_loc     0x0000c5ad      0x207 ../vga_bsp//libucosii_bsp.a(os_task.o)
 .debug_loc     0x0000c7b4       0xd7 ../vga_bsp//libucosii_bsp.a(os_time.o)
 .debug_loc     0x0000c88b       0x81 ../vga_bsp//libucosii_bsp.a(alt_sys_init.o)
 .debug_loc     0x0000c90c       0xac ../vga_bsp//libucosii_bsp.a(altera_avalon_jtag_uart_fd.o)
 .debug_loc     0x0000c9b8       0xac ../vga_bsp//libucosii_bsp.a(altera_avalon_jtag_uart_init.o)
 .debug_loc     0x0000ca64       0x2b ../vga_bsp//libucosii_bsp.a(altera_avalon_jtag_uart_ioctl.o)
 .debug_loc     0x0000ca8f       0x2c ../vga_bsp//libucosii_bsp.a(altera_avalon_jtag_uart_read.o)
 .debug_loc     0x0000cabb       0x2c ../vga_bsp//libucosii_bsp.a(altera_avalon_jtag_uart_write.o)
 .debug_loc     0x0000cae7       0x56 ../vga_bsp//libucosii_bsp.a(altera_avalon_timer_sc.o)
 .debug_loc     0x0000cb3d      0x22f ../vga_bsp//libucosii_bsp.a(altera_up_avalon_character_lcd.o)
 .debug_loc     0x0000cd6c      0x206 ../vga_bsp//libucosii_bsp.a(altera_up_avalon_video_pixel_buffer_dma.o)
 .debug_loc     0x0000cf72      0x590 ../vga_bsp//libucosii_bsp.a(altera_up_sd_card_avalon_interface.o)
 .debug_loc     0x0000d502       0x2b ../vga_bsp//libucosii_bsp.a(alt_alarm_start.o)
 .debug_loc     0x0000d52d       0x2b ../vga_bsp//libucosii_bsp.a(alt_dcache_flush_all.o)
 .debug_loc     0x0000d558       0x56 ../vga_bsp//libucosii_bsp.a(alt_dev_llist_insert.o)
 .debug_loc     0x0000d5ae       0x2b ../vga_bsp//libucosii_bsp.a(alt_do_ctors.o)
 .debug_loc     0x0000d5d9       0x2b ../vga_bsp//libucosii_bsp.a(alt_do_dtors.o)
 .debug_loc     0x0000d604       0x2b ../vga_bsp//libucosii_bsp.a(alt_find_dev.o)
 .debug_loc     0x0000d62f       0x2b ../vga_bsp//libucosii_bsp.a(alt_icache_flush_all.o)
 .debug_loc     0x0000d65a       0xac ../vga_bsp//libucosii_bsp.a(alt_iic.o)
 .debug_loc     0x0000d706       0x2b ../vga_bsp//libucosii_bsp.a(alt_iic_isr_register.o)
 .debug_loc     0x0000d731       0x56 ../vga_bsp//libucosii_bsp.a(alt_io_redirect.o)
 .debug_loc     0x0000d787       0x2b ../vga_bsp//libucosii_bsp.a(alt_irq_handler.o)
 .debug_loc     0x0000d7b2       0x81 ../vga_bsp//libucosii_bsp.a(alt_open.o)
 .debug_loc     0x0000d833       0x2b ../vga_bsp//libucosii_bsp.a(altera_nios2_qsys_irq.o)
 .debug_loc     0x0000d85e      0x1ae ../vga_bsp//libucosii_bsp.a(os_cpu_c.o)
 .debug_loc     0x0000da0c       0x2b ../vga_bsp//libucosii_bsp.a(alt_find_file.o)
 .debug_loc     0x0000da37       0x2b ../vga_bsp//libucosii_bsp.a(alt_get_fd.o)
 .debug_loc     0x0000da62       0x2b ../vga_bsp//libucosii_bsp.a(alt_icache_flush.o)
 .debug_loc     0x0000da8d       0x1e /OPT/altera/12.1/nios2eds/bin/gnu/H-i686-pc-linux-gnu/bin/../lib/gcc/nios2-elf/4.1.2/../../../../nios2-elf/lib/libc.a(lib_a-atexit.o)
 .debug_loc     0x0000daab       0x3d /OPT/altera/12.1/nios2eds/bin/gnu/H-i686-pc-linux-gnu/bin/../lib/gcc/nios2-elf/4.1.2/../../../../nios2-elf/lib/libc.a(lib_a-exit.o)
 .debug_loc     0x0000dae8      0x114 /OPT/altera/12.1/nios2eds/bin/gnu/H-i686-pc-linux-gnu/bin/../lib/gcc/nios2-elf/4.1.2/../../../../nios2-elf/lib/libc.a(lib_a-memcmp.o)
 .debug_loc     0x0000dbfc      0x120 /OPT/altera/12.1/nios2eds/bin/gnu/H-i686-pc-linux-gnu/bin/../lib/gcc/nios2-elf/4.1.2/../../../../nios2-elf/lib/libc.a(lib_a-__atexit.o)
 .debug_loc     0x0000dd1c      0x1cb /OPT/altera/12.1/nios2eds/bin/gnu/H-i686-pc-linux-gnu/bin/../lib/gcc/nios2-elf/4.1.2/../../../../nios2-elf/lib/libc.a(lib_a-__call_atexit.o)
 .debug_loc     0x0000dee7       0x56 ../vga_bsp//libucosii_bsp.a(alt_exit.o)

.debug_macinfo
 *(.debug_macinfo)

.debug_weaknames
 *(.debug_weaknames)

.debug_funcnames
 *(.debug_funcnames)

.debug_typenames
 *(.debug_typenames)

.debug_varnames
 *(.debug_varnames)

.debug_alt_sim_info
                0x00000000       0x30
 *(.debug_alt_sim_info)
 .debug_alt_sim_info
                0x00000000       0x30 ../vga_bsp//obj/HAL/src/crt0.o
                0x01000000                __alt_data_end = 0x1000000
                0x01000000                PROVIDE (__alt_stack_pointer, __alt_data_end)
                0x00827c30                PROVIDE (__alt_stack_limit, __alt_stack_base)
                0x00827c30                PROVIDE (__alt_heap_start, end)
                0x01000000                PROVIDE (__alt_heap_limit, 0x1000000)
OUTPUT(vga.elf elf32-littlenios2)

.debug_ranges   0x00000000      0x9d8
 .debug_ranges  0x00000000       0x20 ../vga_bsp//obj/HAL/src/crt0.o
 .debug_ranges  0x00000020       0x70 /OPT/altera/12.1/nios2eds/bin/gnu/H-i686-pc-linux-gnu/bin/../lib/gcc/nios2-elf/4.1.2/../../../../nios2-elf/lib/libc.a(lib_a-mallocr.o)
 .debug_ranges  0x00000090       0x30 /OPT/altera/12.1/nios2eds/bin/gnu/H-i686-pc-linux-gnu/bin/../lib/gcc/nios2-elf/4.1.2/../../../../nios2-elf/lib/libc.a(lib_a-mktm_r.o)
 .debug_ranges  0x000000c0      0x168 /OPT/altera/12.1/nios2eds/bin/gnu/H-i686-pc-linux-gnu/bin/../lib/gcc/nios2-elf/4.1.2/../../../../nios2-elf/lib/libc.a(lib_a-vfprintf.o)
 .debug_ranges  0x00000228       0x20 /OPT/altera/12.1/nios2eds/bin/gnu/H-i686-pc-linux-gnu/bin/../lib/gcc/nios2-elf/4.1.2/../../../../nios2-elf/lib/libc.a(lib_a-fflush.o)
 .debug_ranges  0x00000248       0x28 /OPT/altera/12.1/nios2eds/bin/gnu/H-i686-pc-linux-gnu/bin/../lib/gcc/nios2-elf/4.1.2/../../../../nios2-elf/lib/libc.a(lib_a-fvwrite.o)
 .debug_ranges  0x00000270       0xa0 /OPT/altera/12.1/nios2eds/bin/gnu/H-i686-pc-linux-gnu/bin/../lib/gcc/nios2-elf/4.1.2/../../../../nios2-elf/lib/libc.a(lib_a-fwalk.o)
 .debug_ranges  0x00000310      0x110 /OPT/altera/12.1/nios2eds/bin/gnu/H-i686-pc-linux-gnu/bin/../lib/gcc/nios2-elf/4.1.2/../../../../nios2-elf/lib/libc.a(lib_a-reallocr.o)
 .debug_ranges  0x00000420       0x38 /OPT/altera/12.1/nios2eds/bin/gnu/H-i686-pc-linux-gnu/bin/../lib/gcc/nios2-elf/4.1.2/../../../../nios2-elf/lib/libc.a(lib_a-callocr.o)
 .debug_ranges  0x00000458      0x188 /OPT/altera/12.1/nios2eds/bin/gnu/H-i686-pc-linux-gnu/bin/../lib/gcc/nios2-elf/4.1.2/libgcc.a(_udivdi3.o)
 .debug_ranges  0x000005e0      0x198 /OPT/altera/12.1/nios2eds/bin/gnu/H-i686-pc-linux-gnu/bin/../lib/gcc/nios2-elf/4.1.2/libgcc.a(_umoddi3.o)
 .debug_ranges  0x00000778       0x30 /OPT/altera/12.1/nios2eds/bin/gnu/H-i686-pc-linux-gnu/bin/../lib/gcc/nios2-elf/4.1.2/libgcc.a(_addsub_df.o)
 .debug_ranges  0x000007a8       0x88 /OPT/altera/12.1/nios2eds/bin/gnu/H-i686-pc-linux-gnu/bin/../lib/gcc/nios2-elf/4.1.2/libgcc.a(_mul_df.o)
 .debug_ranges  0x00000830       0x50 /OPT/altera/12.1/nios2eds/bin/gnu/H-i686-pc-linux-gnu/bin/../lib/gcc/nios2-elf/4.1.2/libgcc.a(_div_df.o)
 .debug_ranges  0x00000880       0x18 /OPT/altera/12.1/nios2eds/bin/gnu/H-i686-pc-linux-gnu/bin/../lib/gcc/nios2-elf/4.1.2/libgcc.a(_usi_to_df.o)
 .debug_ranges  0x00000898       0x68 /OPT/altera/12.1/nios2eds/bin/gnu/H-i686-pc-linux-gnu/bin/../lib/gcc/nios2-elf/4.1.2/libgcc.a(_muldi3.o)
 .debug_ranges  0x00000900       0x28 /OPT/altera/12.1/nios2eds/bin/gnu/H-i686-pc-linux-gnu/bin/../lib/gcc/nios2-elf/4.1.2/libgcc.a(_clzsi2.o)
 .debug_ranges  0x00000928       0x28 /OPT/altera/12.1/nios2eds/bin/gnu/H-i686-pc-linux-gnu/bin/../lib/gcc/nios2-elf/4.1.2/libgcc.a(_pack_df.o)
 .debug_ranges  0x00000950       0x18 ../vga_bsp//libucosii_bsp.a(altera_avalon_jtag_uart_init.o)
 .debug_ranges  0x00000968       0x28 ../vga_bsp//libucosii_bsp.a(alt_irq_entry.o)
 .debug_ranges  0x00000990       0x30 ../vga_bsp//libucosii_bsp.a(alt_exception_entry.o)
 .debug_ranges  0x000009c0       0x18 /OPT/altera/12.1/nios2eds/bin/gnu/H-i686-pc-linux-gnu/bin/../lib/gcc/nios2-elf/4.1.2/../../../../nios2-elf/lib/libc.a(lib_a-__call_atexit.o)
